(dp0
S'argsDesc'
p1
S'function f square'
p2
sS'data'
p3
(lp4
(lp5
I911
aI185
aI950
aI872
aI900
aI22
aI205
aI866
aI455
aI181
aI70
aI67
aI873
aI71
aI879
aI420
aI910
aI1
aI67
aI871
aI424
aI77
aI420
aI449
aI964
aI455
aI177
aI419
aI181
aI186
aI924
aI453
aI189
aI941
aI430
aI908
aI905
aI201
aI176
aI200
aI861
aI909
aI178
aI459
aI419
aI853
aI199
aI75
aI936
aI912
aI6
aI1
aI957
aI857
aI429
aI888
aI427
aI442
aI419
aI183
aI182
aI445
aI78
aI414
aI916
aI68
aI203
aI419
aI899
aI469
aI919
aI886
aI886
aI929
aI189
aI876
aI455
aI857
aI184
aI863
aI413
aI189
aI873
aI908
aI854
aI875
aI175
aI913
aI431
aI948
aI23
aI180
aI881
aI200
aI416
aI886
aI182
aI887
aI203
aI173
aa(lp6
I436
aI421
aI1804
aI69
aI1791
aI1940
aI464
aI465
aI1864
aI1824
aI1838
aI908
aI937
aI1791
aI1798
aI1816
aI1878
aI1861
aI869
aI950
aI968
aI940
aI889
aI1786
aI1829
aI954
aI198
aI1796
aI1848
aI203
aI199
aI1946
aI1757
aI188
aI1909
aI1952
aI897
aI1918
aI899
aI1897
aI898
aI416
aI1805
aI1930
aI205
aI883
aI1823
aI432
aI901
aI1774
aI920
aI1799
aI852
aI3575
aI1969
aI955
aI1799
aI976
aI425
aI461
aI929
aI1821
aI442
aI70
aI1788
aI21
aI934
aI437
aI1791
aI857
aI431
aI3
aI66
aI907
aI1799
aI877
aI1836
aI1872
aI1865
aI1955
aI1795
aI931
aI1769
aI1799
aI22
aI945
aI886
aI1815
aI976
aI1865
aI1931
aI1884
aI922
aI1843
aI967
aI1799
aI3534
aI1832
aI1792
aI902
aa(lp7
I1981
aI1829
aI1810
aI3703
aI3553
aI3587
aI925
aI1951
aI927
aI1790
aI1860
aI3557
aI3631
aI1873
aI1769
aI3747
aI872
aI3788
aI3539
aI884
aI1965
aI950
aI3823
aI6
aI21
aI3860
aI1811
aI6045
aI3609
aI1752
aI4
aI884
aI3660
aI896
aI3692
aI6896
aI413
aI3584
aI3697
aI3551
aI1534
aI436
aI3140
aI3583
aI65
aI1844
aI968
aI3595
aI3581
aI1799
aI1798
aI3778
aI3664
aI3810
aI1865
aI1890
aI418
aI3553
aI454
aI1821
aI3757
aI879
aI1797
aI4
aI1937
aI1900
aI3902
aI3624
aI1872
aI69
aI3712
aI3516
aI868
aI3554
aI3840
aI1954
aI894
aI185
aI3
aI3684
aI3781
aI24
aI201
aI3806
aI973
aI3576
aI194
aI869
aI3840
aI1897
aI67
aI930
aI3567
aI1808
aI1951
aI848
aI3505
aI3580
aI437
aI3123
aa(lp8
I895
aI3606
aI3660
aI3729
aI194
aI7258
aI7244
aI7293
aI929
aI3530
aI7040
aI3635
aI1804
aI7366
aI422
aI7081
aI7152
aI3606
aI25
aI3763
aI908
aI853
aI178
aI1918
aI1803
aI7051
aI3900
aI6901
aI3614
aI3713
aI3728
aI3576
aI3550
aI1913
aI6111
aI3790
aI457
aI3723
aI7289
aI3619
aI1801
aI7166
aI6934
aI3678
aI924
aI1889
aI7145
aI921
aI3656
aI3827
aI966
aI3687
aI7089
aI7130
aI7031
aI7089
aI7175
aI3888
aI1944
aI7006
aI1825
aI3628
aI75
aI6928
aI3980
aI3788
aI960
aI199
aI1889
aI1851
aI67
aI185
aI7092
aI21
aI7582
aI7027
aI3704
aI7182
aI7036
aI7387
aI7003
aI7105
aI203
aI7044
aI3565
aI6135
aI6962
aI3561
aI7089
aI1805
aI177
aI6920
aI7089
aI1805
aI7112
aI3917
aI6913
aI7214
aI7100
aI7066
aa(lp9
I3741
aI7084
aI7391
aI1910
aI7484
aI1953
aI7823
aI6901
aI7197
aI13687
aI6995
aI7248
aI7721
aI7842
aI3805
aI1968
aI7516
aI867
aI879
aI948
aI7098
aI6996
aI6956
aI7293
aI7320
aI3899
aI7461
aI7591
aI3776
aI3722
aI7105
aI7180
aI3906
aI7693
aI7363
aI3660
aI7471
aI7294
aI3109
aI7295
aI7565
aI1905
aI7348
aI7305
aI7584
aI3605
aI7121
aI3832
aI7719
aI7229
aI3681
aI7721
aI3780
aI7035
aI3623
aI9048
aI7347
aI1751
aI8961
aI3664
aI8961
aI447
aI1830
aI8883
aI6152
aI7070
aI3674
aI3702
aI3752
aI7665
aI7191
aI7519
aI3823
aI7553
aI189
aI1789
aI1948
aI7763
aI7304
aI8975
aI910
aI8932
aI7273
aI7785
aI7569
aI1863
aI1788
aI432
aI3751
aI6982
aI7587
aI3585
aI13857
aI3860
aI3686
aI7797
aI3764
aI7782
aI7414
aI7601
aa(lp10
I13416
aI1866
aI3584
aI21
aI3971
aI7170
aI6956
aI3690
aI1853
aI7339
aI14434
aI7211
aI3826
aI8950
aI3531
aI8980
aI13428
aI7788
aI7796
aI3781
aI1894
aI9033
aI7462
aI7255
aI13408
aI8939
aI13948
aI3689
aI13979
aI3627
aI6920
aI3634
aI3658
aI13854
aI14178
aI13431
aI3889
aI1889
aI1832
aI7541
aI3832
aI14025
aI3702
aI7694
aI7102
aI7533
aI3815
aI14288
aI3685
aI1800
aI14373
aI3588
aI7028
aI14063
aI7463
aI3670
aI6913
aI3931
aI882
aI1921
aI437
aI444
aI3503
aI14450
aI7808
aI3717
aI967
aI3718
aI936
aI8946
aI13360
aI7845
aI188
aI7691
aI3619
aI432
aI3876
aI7297
aI14097
aI7266
aI3928
aI13932
aI7416
aI3738
aI3775
aI6171
aI3825
aI3543
aI1833
aI1796
aI14327
aI1800
aI14509
aI14172
aI6895
aI7631
aI3907
aI7306
aI3604
aI14092
aa(lp11
I14493
aI15413
aI3780
aI3715
aI14717
aI8921
aI15288
aI7545
aI14126
aI8956
aI7169
aI7603
aI3731
aI1812
aI7500
aI9021
aI14302
aI8955
aI13403
aI14098
aI14954
aI960
aI7085
aI14792
aI14450
aI8922
aI14757
aI14214
aI3689
aI6979
aI6974
aI6911
aI14999
aI14219
aI1965
aI7616
aI14337
aI13971
aI13876
aI7356
aI6987
aI3748
aI7099
aI7472
aI14691
aI6992
aI3717
aI13932
aI15289
aI14278
aI969
aI1908
aI7399
aI173
aI13979
aI7490
aI7287
aI14565
aI14363
aI7066
aI13983
aI3645
aI14591
aI15335
aI7782
aI14153
aI17709
aI3549
aI3807
aI7735
aI14844
aI15046
aI14141
aI15482
aI13413
aI14055
aI14094
aI7439
aI14687
aI3567
aI14394
aI7771
aI1785
aI14005
aI1914
aI14811
aI951
aI8915
aI1859
aI952
aI7277
aI12058
aI15368
aI849
aI13369
aI14415
aI3575
aI15185
aI14192
aI9006
aa(lp12
I14313
aI3543
aI26423
aI1934
aI3629
aI8923
aI8942
aI6966
aI7050
aI14658
aI17703
aI3658
aI7117
aI7073
aI13405
aI8936
aI15462
aI3696
aI1836
aI27936
aI14671
aI15407
aI14186
aI13400
aI3733
aI17629
aI1854
aI15113
aI7301
aI14741
aI17617
aI15318
aI8934
aI15051
aI14644
aI14478
aI14228
aI7183
aI14914
aI3725
aI3636
aI13453
aI13450
aI13356
aI26377
aI14341
aI428
aI17616
aI3854
aI8987
aI7364
aI13662
aI15404
aI932
aI7597
aI8990
aI13754
aI14474
aI7110
aI9019
aI8962
aI17684
aI3753
aI1895
aI15364
aI13367
aI7610
aI14464
aI420
aI17609
aI14618
aI15390
aI7102
aI17719
aI14819
aI15386
aI7398
aI14131
aI14601
aI14458
aI3766
aI1977
aI14423
aI7423
aI17755
aI15225
aI7366
aI3663
aI9019
aI1871
aI14185
aI15043
aI1926
aI7209
aI1955
aI14882
aI15146
aI14322
aI878
aI7062
aa(lp13
I15122
aI14332
aI3914
aI7866
aI15221
aI14734
aI17709
aI8937
aI7669
aI14617
aI26563
aI15270
aI17727
aI7304
aI8931
aI3496
aI26316
aI1942
aI7524
aI884
aI14326
aI7456
aI7040
aI17715
aI7308
aI17622
aI916
aI17751
aI17651
aI1819
aI7708
aI7479
aI14362
aI8982
aI14903
aI7309
aI14390
aI7353
aI14327
aI14287
aI17626
aI7007
aI6880
aI28274
aI15192
aI14559
aI3
aI17700
aI7298
aI13917
aI3578
aI17737
aI17610
aI13326
aI3757
aI7571
aI17748
aI1915
aI14532
aI1941
aI3724
aI3846
aI414
aI17630
aI14577
aI15411
aI17689
aI15149
aI13347
aI3822
aI7600
aI17708
aI3930
aI15128
aI17755
aI17689
aI456
aI7312
aI868
aI7748
aI419
aI17589
aI14851
aI17642
aI3736
aI1838
aI1918
aI17669
aI7675
aI7438
aI17671
aI178
aI27745
aI6919
aI7356
aI1786
aI14197
aI6994
aI17691
aI26437
aa(lp14
I17771
aI14829
aI14946
aI445
aI28747
aI17698
aI17638
aI17734
aI1867
aI7251
aI27915
aI13390
aI14133
aI28628
aI1784
aI27202
aI7323
aI26481
aI15414
aI15052
aI26356
aI17655
aI3596
aI28698
aI17767
aI29256
aI14629
aI15057
aI17702
aI14527
aI30253
aI3943
aI15122
aI17707
aI14550
aI7135
aI1823
aI17682
aI3894
aI17750
aI26462
aI7056
aI7485
aI8979
aI7094
aI14718
aI26389
aI961
aI17706
aI26399
aI26450
aI17653
aI3972
aI7164
aI26422
aI14342
aI15122
aI7241
aI8951
aI17643
aI7203
aI14670
aI13745
aI14244
aI7071
aI3106
aI7194
aI864
aI26440
aI26370
aI3756
aI26460
aI7205
aI7424
aI7728
aI26444
aI27117
aI26424
aI27676
aI6983
aI14333
aI7052
aI17671
aI7556
aI26498
aI14780
aI14193
aI14312
aI8981
aI17758
aI26594
aI14178
aI8968
aI13858
aI7747
aI450
aI7487
aI17685
aI3948
aI17727
aasS'experiment'
p15
(dp16
S'trialsPerAgent'
p17
I100
sS'numAgents'
p18
(lp19
I200
aI200
aI200
aI200
aI200
aI200
aI200
aI200
aI200
aI200
asS'D'
p20
(lp21
I10
aI15
aI20
aI25
aI30
aI35
aI40
aI45
aI50
aI55
assS'type'
p22
S'FKLS2'
p23
s.