(dp0
S'argsDesc'
p1
S'no args'
p2
sS'data'
p3
(lp4
(lp5
I1550
aI179
aI2079
aI379
aI1245
aI1729
aI1141
aI644
aI560
aI1205
aI15160
aI2126
aI1078
aI82
aI330
aI565
aI2053
aI673
aI786
aI12463
aI563
aI1286
aI4409
aI13321
aI1954
aI2967
aI178
aI446
aI603
aI807
aI806
aI4688
aI509
aI4038
aI3386
aI369
aI4311
aI111
aI5
aI1529
aI510
aI249
aI480
aI1570
aI1461
aI744
aI2871
aI772
aI2228
aI259
aI4107
aI3806
aI831
aI10575
aI927
aI488
aI1153
aI833
aI539
aI4184
aI367
aI741
aI3525
aI706
aI427
aI693
aI224
aI531
aI14394
aI646
aI4031
aI21
aI22
aI454
aI1986
aI1509
aI17366
aI4048
aI1246
aI743
aI459
aI569
aI215
aI531
aI512
aI1769
aI470
aI1747
aI2521
aI734
aI2239
aI3762
aI849
aI652
aI553
aI463
aI26
aI733
aI578
aI157
aI2065
aI2362
aI1765
aI1155
aI557
aI675
aI4134
aI2096
aI2844
aI78
aI122
aI2075
aI840
aI1644
aI4858
aI177
aI777
aI216
aI840
aI1510
aI382
aI607
aI1157
aI554
aI532
aI1965
aI2455
aI803
aI439
aI2544
aI1108
aI3434
aI1356
aI3007
aI1553
aI7247
aI1176
aI622
aI17372
aI670
aI837
aI1194
aI224
aI1087
aI1216
aI1497
aI4168
aI452
aI828
aI2763
aI576
aI42
aI161
aI1097
aI4566
aI5655
aI1666
aI470
aI612
aI44634
aI455
aI113
aI13797
aI4946
aI160
aI4873
aI1403
aI836
aI1311
aI668
aI10
aI762
aI194
aI492
aI838
aI3378
aI1840
aI466
aI13765
aI4996
aI4377
aI2325
aI1557
aI399
aI946
aI2004
aI1469
aI700
aI1513
aI3531
aI3034
aI3560
aI26633
aI489
aI347
aI1113
aI506
aI1122
aI1162
aI4042
aI690
aI56
aI1471
aI4212
aI2438
aI703
aI4875
aI1357
aI690
aI571
aI663
aI13439
aI3007
aI1793
aI371
aI1514
aI747
aI1685
aI3883
aI606
aI48931
aI484
aI173
aI3559
aI828
aI595
aI61
aI1220
aI181
aI2744
aI499
aI258
aI160
aI552
aI3537
aI56
aI2064
aI449
aI4848
aI4389
aI3618
aI5345
aI4726
aI7087
aI184
aI20603
aI1179
aI1709
aI1377
aI4103
aI318
aI554
aI820
aI188
aI2904
aI2275
aI11
aI1507
aI1966
aI495
aI1130
aI459
aI3875
aI1267
aI1024
aI5268
aI1213
aI493
aI1747
aI1295
aI515
aI1322
aI2333
aI621
aI373
aI3495
aI1243
aI1851
aI759
aI640
aI3423
aI8343
aI1164
aI4022
aI1371
aI194
aI254
aI68642
aI173
aI644
aI1456
aI2131
aI5364
aI627
aI704
aI1235
aI757
aI158
aI1083
aI1162
aI2482
aI4033
aI669
aI112
aI635
aI2884
aI2536
aI3558
aI176
aI8766
aI4044
aI1534
aI1189
aI588
aI663
aI510
aI1756
aI2001
aI3859
aI456
aI1222
aI5038
aI2338
aI4101
aI5884
aI492
aI230
aI671
aI2898
aI683
aI2469
aI2336
aI4956
aI3089
aI862
aI632
aI5790
aI48272
aI1716
aI827
aI697
aI298
aI1159
aI831
aI1562
aI497
aI1168
aI1933
aI3
aI1263
aI724
aI1122
aI218
aI1539
aI587
aI204
aI3397
aI202
aI642
aI232
aI566
aI1923
aI528
aI2557
aI784
aI631
aI65
aI816
aI1278
aI1525
aI493
aI176
aI3468
aI4371
aI72
aI861
aI581
aI1850
aI3832
aI576
aI875
aI3924
aI71
aI14485
aI1637
aI730
aI1498
aI1541
aI153
aI1127
aI3836
aI510
aI803
aI601
aI3643
aI2884
aI188
aI204
aI1141
aI494
aI714
aI4938
aI1162
aI593
aI8341
aI1249
aI482
aI2175
aI194
aI1391
aI3706
aI3091
aI386
aI699
aI2424
aI1456
aI4335
aI561
aI1102
aI154
aI764
aI808
aI1560
aI1641
aI45008
aI1349
aI2302
aI1481
aI17
aI2076
aI4210
aI249
aI495
aI1374
aI780
aI682
aI2920
aI1371
aI3020
aI534
aI717
aI2785
aI2045
aI2751
aI6561
aI582
aI1293
aI62
aI651
aI2003
aI826
aI196
aI1723
aI1773
aI1299
aI2608
aI12946
aI1313
aI1552
aI4896
aI4547
aI867
aI19586
aI22
aI1120
aI549
aI1348
aI2382
aI6630
aI1671
aI683
aI1225
aI9
aI3012
aI2258
aI2294
aI483
aI855
aI5230
aI2552
aI739
aI197
aI2075
aI1269
aI1719
aI14137
aI1093
aI12429
aI1097
aI142
aI788
aI702
aI21
aI12793
aI1146
aI666
aI1269
aI2774
aI2381
aI2581
aI1066
aI547
aI1511
aI832
aI4323
aI561
aI1982
aI1111
aI183
aI1256
aI573
aI236
aI2135
aI247
aI2456
aI473
aI4
aI548
aI526
aI1860
aI2299
aI594
aI528
aI4686
aI1341
aI2635
aI170
aI1193
aI2023
aI655
aI3542
aI1825
aI561
aI150
aI1522
aI2168
aI460
aI71
aI2346
aI3539
aI3378
aI2018
aI188
aI3095
aI1876
aI4710
aI557
aI72
aI1554
aI1317
aI570
aI1717
aI866
aI196
aI1132
aI861
aI71
aI866
aI44
aI3715
aI5673
aI4554
aI474
aI3846
aI877
aI1495
aI1423
aI727
aI1177
aI2299
aI653
aI1659
aI2758
aI347
aI468
aI1630
aI2291
aI223
aI498
aI3541
aI341
aI507
aI1124
aI539
aI3825
aI5284
aI1603
aI5143
aI2256
aI169
aI761
aI744
aI1589
aI4758
aI3454
aI524
aI568
aI1367
aI1309
aI363
aI205
aI3873
aI18
aI74
aI2233
aI1088
aI1024
aI579
aI250
aI589
aI793
aI249
aI2763
aI852
aI675
aI1123
aI581
aI2376
aI12814
aI758
aI585
aI826
aI9406
aI1477
aI1362
aI13477
aI2111
aI1834
aI510
aI2682
aI1123
aI2648
aI143
aI1658
aI639
aI3741
aI4985
aI1135
aI732
aI3066
aI707
aI444
aI2461
aI1094
aI3141
aI3872
aI821
aI4672
aI1333
aI1137
aI395
aI160
aI1131
aI237
aI2475
aI528
aI1335
aI373
aI1384
aI486
aI13413
aI149
aI713
aI3704
aI2656
aI543
aI487
aI3343
aI4664
aI1409
aI1489
aI825
aI7870
aI2772
aI1332
aI3693
aI2236
aI633
aI4163
aI406
aI568
aI818
aI598
aI152
aI1426
aI1160
aI474
aI2685
aI1058
aI1253
aI1082
aI3248
aI3680
aI556
aI2636
aI2835
aI566
aI162
aI4053
aI2196
aI2341
aI6159
aI1530
aI763
aI348
aI8487
aI4398
aI3396
aI5881
aI471
aI1186
aI15720
aI3295
aI108
aI48664
aI19373
aI486
aI2137
aI1295
aI4276
aI597
aI3528
aI12
aI1845
aI217
aI643
aI5226
aI694
aI3099
aI576
aI1138
aI383
aI4933
aI4470
aI772
aI3167
aI1135
aI4442
aI2156
aI1256
aI3423
aI368
aI1326
aI2762
aI221
aI1
aI469
aI559
aI342
aI3541
aI481
aI2018
aI602
aI1927
aI767
aI2476
aI2124
aI184
aI2654
aI729
aI2153
aI1284
aI2977
aI4068
aI1297
aI13603
aI3314
aI4811
aI718
aI2764
aI664
aI15992
aI4643
aI588
aI2720
aI24
aI1340
aI13252
aI2185
aI171
aI218
aI1940
aI493
aI515
aI1203
aI163
aI1186
aI465
aI1605
aI1917
aI613
aI712
aI747
aI2951
aI462
aI1849
aI631
aI78
aI565
aI13003
aI1459
aI461
aI4
aI1245
aI2666
aI2414
aI10123
aI165
aI619
aI381
aI165
aI784
aI736
aI809
aI1980
aI336
aI1578
aI2016
aI1182
aI1457
aI624
aI690
aI545
aI2458
aI547
aI797
aI227
aI2
aI1867
aI13060
aI1329
aI863
aI1206
aI858
aI1391
aI1319
aI267
aI1841
aI544
aI2689
aI1276
aI3657
aI377
aI4485
aI1105
aI755
aI1962
aI548
aI2342
aI189
aI1033
aI1399
aI2227
aI4967
aI1078
aI1446
aI474
aI2374
aI228
aI2709
aI2694
aI1275
aI63
aI1287
aI484
aI2741
aI1716
aI2608
aI1472
aI1925
aI655
aI807
aI382
aI535
aI1080
aI2419
aI575
aI1537
aI3951
aI970
aI666
aI1760
aI648
aI3744
aI440
aI1218
aI2619
aI3682
aI341
aI2867
aI3447
aI1747
aI1154
aI5364
aI697
aI778
aI349
aI1419
aI606
aI263
aI350
aI13951
aI13631
aI643
aI832
aI1341
aI449
aI768
aI4430
aI3600
aI3605
aI11647
aI248
aI1382
aI483
aI1348
aI686
aI4415
aI2808
aI575
aI726
aI3521
aI2229
aI3722
aI4779
aI3865
aI748
aI1244
aI3766
aI9984
aI11332
aI401
aI1105
aI580
aI3036
aI1103
aI843
aI1160
aI547
aI5734
aI220
aI1778
aI113
aI609
aI13078
aI38550
aI233
aI999
aI2397
aI530
aI3447
aI2122
aI547
aI11762
aI2698
aI400
aI6681
aI814
aI625
aI1596
aI1840
aI707
aI699
aI334
aI1320
aI2172
aI573
aI482
aI2843
aI538
aI465
aI1199
aI5398
aI712
aI1425
aI1548
aI77
aI815
aI14089
aI2187
aI154
aI12580
aI1786
aI508
aI5204
aI1874
aI824
aI1831
aI778
aI825
aI130
aI4518
aI5050
aI55
aI75
aI171
aI1680
aI762
aI669
aI1559
aa(lp6
I1057
aI339
aI754
aI1018
aI4658
aI726
aI1252
aI3924
aI2082
aI290
aI456
aI721
aI2259
aI1236
aI415
aI467
aI112
aI730
aI287
aI307
aI273
aI1586
aI347
aI1043
aI401
aI220
aI729
aI1014
aI1041
aI121
aI988
aI1051
aI48
aI813
aI2257
aI375
aI2111
aI54
aI2694
aI1386
aI452
aI713
aI2588
aI894
aI656
aI446
aI372
aI1880
aI1
aI656
aI1582
aI985
aI1226
aI961
aI760
aI389
aI914
aI128
aI118
aI737
aI2375
aI116
aI124
aI427
aI326
aI633
aI800
aI8944
aI251
aI1295
aI1560
aI442
aI11298
aI2100
aI2607
aI1495
aI847
aI425
aI732
aI2761
aI293
aI3486
aI592
aI119
aI373
aI2067
aI142
aI415
aI775
aI112
aI2780
aI127
aI2181
aI882
aI370
aI44
aI43
aI441
aI834
aI1459
aI776
aI405
aI494
aI994
aI296
aI272
aI681
aI537
aI481
aI158
aI1461
aI1097
aI416
aI308
aI2460
aI677
aI648
aI825
aI336
aI232
aI1059
aI647
aI897
aI1417
aI1252
aI1345
aI825
aI705
aI139
aI868
aI491
aI321
aI288
aI905
aI930
aI308
aI313
aI253
aI308
aI939
aI728
aI352
aI271
aI105
aI245
aI1091
aI2030
aI221
aI850
aI956
aI252
aI337
aI431
aI955
aI1701
aI958
aI1252
aI6555
aI8247
aI781
aI858
aI438
aI658
aI801
aI435
aI1006
aI845
aI1349
aI343
aI714
aI111
aI480
aI457
aI333
aI6590
aI302
aI399
aI675
aI113
aI239
aI3413
aI447
aI435
aI735
aI401
aI796
aI90
aI47
aI698
aI391
aI24597
aI3275
aI838
aI336
aI1556
aI377
aI996
aI406
aI713
aI673
aI168
aI6785
aI1007
aI740
aI58
aI157
aI746
aI207
aI429
aI140
aI4597
aI144
aI55
aI942
aI2512
aI117
aI787
aI847
aI1396
aI765
aI125
aI8974
aI809
aI9311
aI1258
aI328
aI1544
aI660
aI779
aI2276
aI473
aI5836
aI722
aI835
aI433
aI1527
aI447
aI465
aI300
aI1328
aI2039
aI1925
aI793
aI1201
aI2501
aI819
aI150
aI1213
aI780
aI298
aI2
aI333
aI409
aI325
aI984
aI470
aI359
aI1056
aI670
aI268
aI300
aI1413
aI1949
aI1132
aI2812
aI346
aI7324
aI57
aI638
aI1256
aI128
aI510
aI2184
aI816
aI232
aI1022
aI53
aI236
aI310
aI702
aI468
aI1020
aI2271
aI2203
aI436
aI16
aI430
aI397
aI250
aI7172
aI1112
aI338
aI335
aI777
aI33
aI1279
aI424
aI142
aI352
aI6808
aI245
aI378
aI1462
aI1020
aI464
aI784
aI883
aI480
aI137
aI871
aI441
aI2343
aI4699
aI691
aI418
aI44
aI425
aI310
aI131
aI1865
aI3029
aI773
aI460
aI375
aI327
aI14
aI466
aI244
aI279
aI334
aI487
aI433
aI57
aI2656
aI336
aI384
aI60
aI861
aI1880
aI39
aI576
aI1475
aI654
aI1185
aI56
aI163
aI2403
aI681
aI229
aI39836
aI4980
aI317
aI820
aI4434
aI1390
aI984
aI324
aI491
aI1058
aI9410
aI292
aI28
aI360
aI115
aI664
aI926
aI466
aI716
aI4673
aI259
aI1
aI301
aI2704
aI803
aI287
aI917
aI447
aI1154
aI817
aI2080
aI415
aI382
aI797
aI964
aI340
aI2992
aI2566
aI769
aI241
aI1539
aI866
aI819
aI463
aI2
aI345
aI2626
aI1934
aI1337
aI5450
aI126
aI1512
aI5794
aI434
aI817
aI888
aI2572
aI242
aI96
aI309
aI1310
aI734
aI1541
aI891
aI1072
aI347
aI735
aI167
aI1528
aI2022
aI7006
aI1308
aI1206
aI766
aI2113
aI347
aI10504
aI106
aI408
aI1248
aI6680
aI341
aI660
aI931
aI2193
aI2793
aI710
aI452
aI2235
aI476
aI324
aI1080
aI754
aI327
aI789
aI118
aI14
aI2461
aI3788
aI490
aI467
aI1416
aI517
aI840
aI50
aI654
aI328
aI54
aI138
aI6972
aI142
aI6561
aI656
aI141
aI2823
aI115
aI62
aI441
aI1443
aI1829
aI110
aI1234
aI1019
aI437
aI2073
aI1180
aI710
aI413
aI212
aI805
aI396
aI145
aI1182
aI1606
aI2140
aI2094
aI3266
aI2183
aI469
aI342
aI239
aI2005
aI306
aI817
aI119
aI1066
aI869
aI366
aI3865
aI1171
aI326
aI664
aI2608
aI424
aI1394
aI2116
aI446
aI7136
aI888
aI312
aI432
aI1591
aI52
aI90
aI62
aI618
aI120
aI130
aI903
aI337
aI2519
aI1498
aI480
aI365
aI248
aI351
aI43
aI322
aI739
aI143
aI24532
aI329
aI308
aI322
aI4544
aI488
aI1062
aI259
aI1469
aI125
aI320
aI23624
aI1445
aI1042
aI6853
aI4047
aI5657
aI303
aI1532
aI436
aI15
aI1118
aI919
aI328
aI994
aI131
aI44
aI228
aI758
aI139
aI380
aI451
aI341
aI130
aI789
aI284
aI2105
aI371
aI32
aI360
aI318
aI2338
aI419
aI879
aI1031
aI752
aI2205
aI985
aI206
aI129
aI350
aI340
aI477
aI1631
aI124
aI220
aI2883
aI300
aI1180
aI43
aI116
aI382
aI6718
aI125
aI401
aI2689
aI693
aI128
aI966
aI1203
aI1469
aI882
aI1315
aI305
aI1616
aI2255
aI1292
aI660
aI1715
aI432
aI397
aI2540
aI904
aI2537
aI1984
aI1024
aI2042
aI388
aI154
aI1161
aI856
aI2140
aI45
aI1017
aI477
aI915
aI843
aI325
aI768
aI885
aI352
aI1374
aI862
aI3920
aI2195
aI372
aI298
aI1508
aI2447
aI1980
aI2255
aI650
aI340
aI2071
aI1087
aI109
aI1082
aI2018
aI51
aI131
aI125
aI362
aI788
aI632
aI707
aI833
aI21
aI1513
aI477
aI1029
aI5316
aI490
aI395
aI493
aI911
aI420
aI135
aI1273
aI259
aI380
aI319
aI295
aI569
aI1185
aI372
aI323
aI146
aI336
aI98
aI2751
aI1468
aI1986
aI874
aI1568
aI7012
aI848
aI369
aI314
aI1102
aI460
aI909
aI307
aI887
aI132
aI759
aI464
aI5967
aI461
aI111
aI368
aI267
aI130
aI51
aI223
aI1235
aI694
aI1032
aI2520
aI111
aI723
aI682
aI290
aI671
aI360
aI1938
aI2169
aI700
aI4745
aI4063
aI510
aI1866
aI445
aI6710
aI360
aI310
aI17
aI2023
aI430
aI635
aI122
aI3049
aI844
aI1200
aI16
aI347
aI667
aI706
aI804
aI285
aI424
aI518
aI327
aI386
aI416
aI336
aI947
aI360
aI109
aI700
aI2262
aI823
aI1160
aI1655
aI407
aI3857
aI124
aI418
aI674
aI756
aI1004
aI1280
aI1266
aI2260
aI1541
aI153
aI6514
aI426
aI337
aI735
aI505
aI502
aI905
aI462
aI2424
aI3592
aI728
aI519
aI1038
aI308
aI2545
aI2209
aI513
aI1735
aI137
aI287
aI399
aI483
aI2080
aI2000
aI902
aI144
aI656
aI359
aI2017
aI436
aI360
aI47
aI290
aI17217
aI257
aI1346
aI126
aI1386
aI450
aI385
aI409
aI7277
aI1091
aI145
aI503
aI1336
aI488
aI469
aI969
aI19
aI2820
aI2477
aI1914
aI461
aI5045
aI367
aI1272
aI460
aI961
aI1917
aI652
aI136
aI7478
aI491
aI320
aI995
aI251
aI53
aI2624
aI371
aI243
aI440
aI738
aI163
aI3195
aI857
aI323
aI904
aI455
aI376
aI1231
aI920
aI216
aI348
aI680
aI423
aI4947
aI717
aI1158
aI753
aI312
aI471
aI718
aI90
aI7013
aI1001
aI991
aI1500
aI152
aI2360
aI735
aI3342
aI2390
aI671
aI433
aI1263
aI3820
aI475
aI661
aI22
aI1626
aI116
aI980
aI314
aI383
aI2477
aI331
aI331
aI523
aI2994
aI353
aI314
aI214
aI2176
aI2528
aI110
aI170
aI834
aI913
aI861
aI112
aI830
aI835
aI305
aI2654
aI420
aI2501
aI2173
aI525
aI1480
aI362
aI13998
aI1607
aI496
aI468
aI907
aI9910
aI1073
aI1292
aI297
aI496
aI2025
aI1411
aI427
aI448
aI6692
aI161
aI6580
aI2294
aI697
aI344
aI117
aI334
aI314
aI326
aI770
aI55
aI367
aI2201
aI689
aI278
aI1098
aI340
aI854
aI199
aI819
aI2535
aI2525
aI342
aI1694
aI679
aI479
aI824
aI6620
aI1253
aI634
aI1013
aI792
aI285
aI439
aI647
aI6782
aI115
aI425
aI2264
aI352
aI26274
aI2144
aI210
aI792
aI92
aI1213
aI132
aI1
aI1495
aI1418
aI724
aI496
aI912
aI251
aI1881
aI389
aI131
aI634
aI718
aI393
aI445
aI795
aI452
aI461
aI374
aI714
aI1472
aI293
aI673
aI305
aI113
aI311
aI314
aI17
aI1062
aI772
aI392
aI834
aI6764
aI2008
aa(lp7
I800
aI537
aI866
aI4925
aI982
aI370
aI1588
aI116
aI723
aI251
aI841
aI4821
aI848
aI266
aI247
aI539
aI264
aI1483
aI574
aI379
aI1623
aI391
aI308
aI332
aI216
aI265
aI49
aI1637
aI7464
aI722
aI520
aI628
aI1063
aI97
aI125
aI867
aI875
aI2143
aI17
aI270
aI46
aI995
aI4782
aI904
aI591
aI94
aI941
aI331
aI261
aI380
aI1121
aI283
aI716
aI566
aI545
aI335
aI14979
aI1746
aI554
aI13
aI237
aI746
aI1430
aI282
aI784
aI663
aI262
aI353
aI278
aI5646
aI301
aI523
aI681
aI1057
aI306
aI40
aI1220
aI279
aI705
aI1010
aI305
aI314
aI1194
aI188
aI718
aI4920
aI4514
aI124
aI272
aI375
aI1027
aI121
aI298
aI615
aI192
aI629
aI602
aI776
aI654
aI544
aI716
aI932
aI269
aI274
aI669
aI341
aI375
aI770
aI648
aI561
aI5576
aI4358
aI198
aI390
aI248
aI6000
aI244
aI1145
aI47
aI781
aI672
aI1776
aI119
aI111
aI1125
aI4564
aI277
aI14
aI372
aI1628
aI504
aI512
aI348
aI857
aI1415
aI274
aI217
aI723
aI50
aI117
aI366
aI242
aI645
aI810
aI88
aI332
aI298
aI496
aI270
aI5914
aI268
aI326
aI483
aI221
aI338
aI3287
aI4898
aI1672
aI42
aI687
aI336
aI401
aI3437
aI610
aI379
aI268
aI107
aI646
aI281
aI15
aI377
aI809
aI298
aI97
aI3564
aI243
aI5003
aI1098
aI255
aI1934
aI912
aI794
aI786
aI301
aI1384
aI275
aI4724
aI507
aI110
aI1956
aI264
aI1770
aI336
aI367
aI568
aI908
aI692
aI116
aI583
aI652
aI280
aI655
aI316
aI270
aI603
aI100
aI1039
aI635
aI1770
aI1591
aI1076
aI100
aI535
aI368
aI290
aI239
aI2036
aI2
aI598
aI1912
aI372
aI321
aI323
aI2850
aI301
aI253
aI718
aI6728
aI3282
aI938
aI190
aI81
aI43
aI747
aI2764
aI326
aI1143
aI1685
aI571
aI133
aI1383
aI338
aI301
aI1957
aI1676
aI1101
aI674
aI354
aI360
aI573
aI904
aI5116
aI569
aI47
aI651
aI82
aI295
aI978
aI84
aI104
aI762
aI377
aI136
aI1792
aI758
aI498
aI192
aI1101
aI445
aI268
aI650
aI349
aI577
aI38
aI273
aI912
aI958
aI480
aI486
aI178
aI366
aI330
aI251
aI43
aI341
aI860
aI125
aI757
aI1195
aI125
aI2086
aI864
aI16
aI2156
aI209
aI1047
aI1571
aI610
aI652
aI273
aI5038
aI1170
aI254
aI841
aI498
aI89
aI782
aI109
aI1942
aI1720
aI513
aI654
aI102
aI594
aI572
aI2138
aI1693
aI1619
aI371
aI1022
aI299
aI363
aI743
aI622
aI1185
aI19
aI713
aI346
aI375
aI1980
aI826
aI269
aI537
aI613
aI252
aI309
aI296
aI701
aI396
aI1718
aI917
aI17
aI568
aI265
aI505
aI508
aI125
aI352
aI46
aI105
aI6420
aI710
aI610
aI30
aI2044
aI303
aI114
aI3401
aI325
aI617
aI4971
aI789
aI118
aI118
aI664
aI296
aI453
aI292
aI1004
aI40
aI254
aI1490
aI4981
aI281
aI252
aI648
aI289
aI276
aI334
aI531
aI312
aI1187
aI103
aI77
aI273
aI520
aI2271
aI323
aI663
aI191
aI540
aI5008
aI4
aI2357
aI861
aI1006
aI118
aI1070
aI315
aI1868
aI17072
aI1200
aI104
aI257
aI557
aI341
aI102
aI300
aI304
aI222
aI325
aI42
aI810
aI319
aI1982
aI940
aI509
aI379
aI300
aI343
aI1379
aI867
aI639
aI100
aI4618
aI272
aI447
aI639
aI785
aI2492
aI924
aI617
aI103
aI804
aI92
aI778
aI1123
aI266
aI251
aI194
aI309
aI401
aI4871
aI957
aI322
aI256
aI1564
aI323
aI181
aI399
aI731
aI386
aI795
aI277
aI4769
aI1937
aI250
aI244
aI245
aI1532
aI5139
aI707
aI365
aI115
aI264
aI1033
aI239
aI358
aI577
aI98
aI357
aI4972
aI76
aI701
aI1690
aI236
aI600
aI578
aI596
aI492
aI109
aI789
aI281
aI5271
aI677
aI517
aI127
aI5295
aI604
aI371
aI738
aI515
aI365
aI821
aI705
aI1124
aI112
aI618
aI1890
aI299
aI16783
aI273
aI574
aI544
aI1389
aI963
aI1830
aI608
aI131
aI251
aI261
aI245
aI877
aI1951
aI259
aI807
aI548
aI249
aI2987
aI563
aI103
aI95
aI173
aI270
aI307
aI2939
aI362
aI2113
aI961
aI379
aI275
aI106
aI334
aI112
aI1385
aI96
aI522
aI771
aI271
aI1386
aI223
aI2029
aI1621
aI135
aI1667
aI121
aI356
aI336
aI2059
aI1947
aI296
aI6176
aI1779
aI1472
aI3248
aI1058
aI650
aI384
aI686
aI1681
aI1921
aI1162
aI325
aI379
aI105
aI348
aI286
aI204
aI1424
aI1045
aI317
aI935
aI91
aI863
aI2235
aI1436
aI50
aI1861
aI372
aI294
aI641
aI342
aI106
aI318
aI618
aI52
aI1039
aI901
aI327
aI283
aI337
aI999
aI358
aI109
aI1671
aI589
aI263
aI485
aI270
aI310
aI876
aI355
aI45
aI111
aI209
aI693
aI47
aI347
aI205
aI614
aI253
aI555
aI4116
aI5038
aI634
aI2428
aI362
aI228
aI281
aI671
aI49
aI3774
aI258
aI137
aI514
aI4396
aI1014
aI747
aI370
aI1864
aI294
aI32
aI105
aI1211
aI831
aI684
aI571
aI960
aI911
aI526
aI996
aI203
aI525
aI850
aI582
aI275
aI5319
aI537
aI263
aI2022
aI6091
aI249
aI1115
aI111
aI263
aI107
aI526
aI327
aI491
aI3938
aI397
aI1074
aI289
aI104
aI284
aI1054
aI694
aI1172
aI3607
aI637
aI278
aI680
aI1632
aI866
aI6131
aI992
aI264
aI242
aI318
aI578
aI400
aI390
aI1994
aI346
aI4023
aI1916
aI243
aI306
aI108
aI513
aI237
aI136
aI303
aI2019
aI541
aI1552
aI517
aI93
aI681
aI1362
aI376
aI371
aI286
aI131
aI266
aI275
aI581
aI121
aI956
aI314
aI345
aI275
aI534
aI281
aI594
aI4706
aI829
aI285
aI757
aI2028
aI535
aI1682
aI666
aI339
aI206
aI278
aI85
aI258
aI3472
aI302
aI534
aI930
aI261
aI1098
aI1998
aI615
aI265
aI769
aI681
aI109
aI274
aI334
aI83
aI534
aI779
aI339
aI814
aI681
aI290
aI126
aI625
aI124
aI123
aI193
aI296
aI345
aI41
aI188
aI2051
aI248
aI1596
aI1455
aI4963
aI4
aI509
aI285
aI308
aI541
aI322
aI184
aI543
aI694
aI108
aI875
aI303
aI528
aI638
aI913
aI704
aI599
aI19
aI86
aI826
aI6609
aI5027
aI2298
aI259
aI264
aI47
aI80
aI264
aI105
aI289
aI1533
aI253
aI284
aI2578
aI362
aI963
aI667
aI1331
aI203
aI611
aI1510
aI1037
aI1620
aI217
aI2329
aI543
aI1369
aI113
aI366
aI697
aI383
aI634
aI616
aI522
aI1649
aI1557
aI4143
aI240
aI808
aI834
aI276
aI252
aI1449
aI342
aI1372
aI2904
aI109
aI492
aI394
aI2156
aI117
aI250
aI741
aI105
aI294
aI869
aI1600
aI330
aI122
aI589
aI1012
aI272
aI39
aI542
aI357
aI9070
aI562
aI775
aI109
aI2085
aI1220
aI306
aI286
aI518
aI559
aI837
aI81
aI687
aI109
aI848
aI250
aI101
aI342
aI323
aI378
aI397
aI612
aI18
aI117
aI723
aI593
aI5112
aI254
aI207
aI114
aI289
aI1123
aI277
aI358
aI541
aI310
aI1464
aI268
aI166
aI568
aI296
aI399
aI5004
aI315
aI238
aI16
aI1085
aI1450
aI694
aI531
aI718
aI301
aI1587
aI139
aI1965
aI1425
aI735
aI343
aI45
aI300
aI886
aI138
aI296
aI921
aI824
aI230
aI3374
aI802
aI796
aI40
aI637
aI136
aI75
aI996
aI1176
aI250
aI2103
aI329
aI808
aI7438
aI717
aI555
aI331
aI263
aI1050
aI1535
aI1521
aI1187
aI1894
aI507
aI604
aI314
aI1979
aI964
aI333
aI753
aI4549
aI703
aI109
aI313
aI654
aI272
aI346
aI472
aI530
aI393
aI50
aI312
aI1815
aI292
aI262
aI972
aI254
aI173
aI379
aI96
aI259
aI67
aI255
aI527
aI106
aI366
aI125
aI760
aI290
aI102
aI276
aI106
aI45
aI631
aI358
aI269
aI249
aI828
aI114
aI1021
aI345
aI658
aI21896
aI108
aI387
aI546
aI1107
aI780
aI1071
aI189
aI125
aI125
aI712
aI2961
aI643
aI1560
aa(lp8
I477
aI236
aI87
aI41
aI674
aI587
aI270
aI724
aI847
aI254
aI447
aI692
aI323
aI228
aI1569
aI217
aI251
aI257
aI241
aI103
aI249
aI1575
aI582
aI655
aI227
aI458
aI92
aI4935
aI101
aI228
aI242
aI927
aI223
aI246
aI295
aI236
aI839
aI1589
aI176
aI464
aI235
aI240
aI306
aI885
aI1247
aI246
aI223
aI2381
aI91
aI239
aI433
aI307
aI570
aI524
aI707
aI104
aI241
aI91
aI225
aI439
aI3615
aI250
aI3981
aI863
aI405
aI122
aI806
aI100
aI1644
aI314
aI173
aI1890
aI94
aI459
aI230
aI1510
aI273
aI76
aI311
aI1083
aI792
aI603
aI152
aI267
aI765
aI325
aI262
aI1493
aI711
aI597
aI33
aI650
aI236
aI243
aI431
aI234
aI1319
aI557
aI585
aI1199
aI268
aI684
aI227
aI802
aI509
aI103
aI447
aI157
aI3963
aI300
aI228
aI41
aI2747
aI3759
aI329
aI921
aI426
aI223
aI492
aI280
aI441
aI515
aI1472
aI428
aI912
aI697
aI102
aI265
aI485
aI689
aI1340
aI843
aI276
aI597
aI15
aI248
aI123
aI950
aI445
aI992
aI1360
aI339
aI3765
aI509
aI227
aI127
aI235
aI416
aI600
aI1405
aI223
aI250
aI3594
aI287
aI836
aI1600
aI598
aI291
aI49
aI2312
aI306
aI598
aI308
aI97
aI320
aI802
aI592
aI859
aI594
aI287
aI72
aI251
aI697
aI50
aI240
aI423
aI243
aI1216
aI327
aI734
aI568
aI616
aI552
aI1653
aI829
aI276
aI1806
aI273
aI867
aI649
aI222
aI182
aI268
aI2107
aI629
aI2332
aI1538
aI1682
aI584
aI465
aI594
aI322
aI548
aI1180
aI470
aI44
aI1590
aI482
aI166
aI949
aI424
aI303
aI819
aI700
aI5553
aI642
aI1399
aI641
aI809
aI497
aI557
aI913
aI276
aI225
aI493
aI1315
aI452
aI307
aI105
aI12975
aI113
aI674
aI39
aI1687
aI471
aI181
aI321
aI1043
aI276
aI216
aI42
aI279
aI248
aI568
aI534
aI474
aI208
aI529
aI276
aI229
aI2409
aI269
aI1247
aI318
aI307
aI105
aI478
aI3506
aI965
aI42
aI483
aI299
aI566
aI230
aI752
aI221
aI421
aI116
aI412
aI598
aI115
aI464
aI288
aI467
aI516
aI475
aI1498
aI251
aI910
aI429
aI544
aI557
aI290
aI3094
aI3756
aI993
aI237
aI761
aI18
aI118
aI45
aI198
aI703
aI69
aI445
aI101
aI535
aI760
aI732
aI236
aI258
aI1442
aI251
aI5711
aI113
aI279
aI1442
aI236
aI454
aI241
aI211
aI3238
aI294
aI255
aI321
aI1674
aI233
aI309
aI46
aI433
aI672
aI230
aI462
aI572
aI1575
aI261
aI530
aI250
aI487
aI92
aI817
aI5615
aI334
aI522
aI344
aI301
aI236
aI946
aI174
aI613
aI427
aI684
aI101
aI416
aI287
aI446
aI490
aI1871
aI256
aI1122
aI235
aI439
aI1262
aI1241
aI90
aI666
aI1323
aI157
aI293
aI326
aI639
aI270
aI230
aI724
aI425
aI584
aI242
aI786
aI699
aI511
aI710
aI851
aI2190
aI317
aI462
aI1158
aI740
aI216
aI316
aI1105
aI670
aI1245
aI211
aI950
aI106
aI319
aI216
aI2293
aI235
aI317
aI298
aI431
aI102
aI1388
aI42
aI303
aI582
aI602
aI270
aI96
aI5382
aI291
aI67
aI238
aI250
aI444
aI108
aI615
aI273
aI645
aI2650
aI166
aI226
aI579
aI562
aI169
aI1653
aI50
aI685
aI96
aI564
aI240
aI938
aI176
aI282
aI195
aI260
aI451
aI529
aI336
aI100
aI235
aI504
aI97
aI267
aI78
aI960
aI1330
aI234
aI41
aI465
aI1376
aI225
aI466
aI579
aI841
aI264
aI125
aI478
aI89
aI1599
aI607
aI539
aI703
aI869
aI100
aI317
aI110
aI1551
aI955
aI273
aI767
aI242
aI616
aI247
aI436
aI255
aI234
aI496
aI833
aI514
aI582
aI277
aI47
aI590
aI483
aI12795
aI278
aI216
aI2
aI117
aI944
aI703
aI567
aI504
aI428
aI461
aI322
aI483
aI111
aI1261
aI227
aI235
aI235
aI263
aI285
aI1205
aI530
aI41
aI462
aI204
aI300
aI1649
aI273
aI102
aI833
aI745
aI256
aI13
aI231
aI581
aI260
aI898
aI657
aI232
aI222
aI127
aI4045
aI760
aI235
aI282
aI237
aI1315
aI217
aI818
aI117
aI117
aI3668
aI280
aI794
aI441
aI986
aI504
aI1203
aI242
aI584
aI13
aI986
aI101
aI459
aI269
aI526
aI79
aI321
aI299
aI323
aI223
aI249
aI516
aI221
aI218
aI235
aI96
aI223
aI352
aI963
aI785
aI253
aI229
aI1253
aI324
aI204
aI245
aI89
aI243
aI315
aI574
aI5129
aI221
aI252
aI712
aI256
aI1351
aI231
aI575
aI812
aI1440
aI622
aI1171
aI443
aI245
aI181
aI982
aI264
aI78
aI110
aI230
aI299
aI101
aI6092
aI693
aI862
aI955
aI104
aI475
aI1091
aI13158
aI105
aI462
aI96
aI463
aI208
aI679
aI254
aI747
aI629
aI533
aI1328
aI227
aI217
aI1154
aI128
aI1209
aI893
aI460
aI205
aI786
aI232
aI3892
aI128
aI234
aI760
aI124
aI267
aI245
aI249
aI271
aI232
aI710
aI13198
aI242
aI649
aI503
aI713
aI271
aI221
aI299
aI5380
aI1437
aI206
aI104
aI449
aI622
aI563
aI287
aI100
aI237
aI1210
aI515
aI1161
aI247
aI193
aI456
aI225
aI189
aI262
aI264
aI273
aI315
aI274
aI270
aI113
aI329
aI1398
aI958
aI848
aI1643
aI229
aI289
aI440
aI439
aI302
aI251
aI2436
aI311
aI1293
aI275
aI102
aI742
aI644
aI513
aI231
aI248
aI2646
aI266
aI497
aI1523
aI474
aI838
aI1434
aI736
aI114
aI190
aI96
aI1141
aI263
aI93
aI576
aI99
aI811
aI202
aI1080
aI2965
aI113
aI478
aI275
aI85
aI732
aI441
aI775
aI829
aI213
aI1289
aI75
aI779
aI248
aI829
aI440
aI1605
aI706
aI563
aI956
aI452
aI324
aI261
aI231
aI573
aI242
aI310
aI576
aI190
aI636
aI239
aI261
aI49
aI98
aI948
aI316
aI1258
aI524
aI444
aI358
aI425
aI335
aI46
aI51
aI2588
aI291
aI682
aI562
aI549
aI655
aI251
aI47
aI1512
aI413
aI700
aI238
aI106
aI499
aI274
aI436
aI4
aI222
aI115
aI621
aI193
aI3819
aI619
aI582
aI268
aI977
aI574
aI278
aI486
aI584
aI458
aI601
aI451
aI229
aI3795
aI455
aI752
aI289
aI221
aI525
aI233
aI198
aI1390
aI90
aI314
aI268
aI112
aI206
aI150
aI263
aI951
aI286
aI834
aI258
aI740
aI246
aI3709
aI694
aI329
aI236
aI121
aI183
aI273
aI343
aI735
aI43
aI194
aI265
aI238
aI457
aI241
aI585
aI312
aI241
aI513
aI304
aI114
aI319
aI3208
aI908
aI43
aI108
aI417
aI206
aI298
aI263
aI317
aI1469
aI259
aI469
aI2890
aI1507
aI279
aI319
aI266
aI1701
aI717
aI496
aI943
aI1257
aI240
aI226
aI481
aI524
aI113
aI686
aI214
aI323
aI417
aI694
aI501
aI475
aI445
aI1163
aI562
aI581
aI86
aI38
aI1393
aI320
aI2217
aI278
aI459
aI222
aI254
aI201
aI493
aI1288
aI256
aI883
aI873
aI304
aI703
aI721
aI214
aI213
aI112
aI98
aI254
aI1668
aI1352
aI1519
aI120
aI581
aI1424
aI827
aI229
aI283
aI238
aI452
aI120
aI1562
aI101
aI759
aI98
aI570
aI1245
aI1175
aI282
aI122
aI234
aI274
aI1450
aI289
aI439
aI781
aI611
aI42
aI636
aI49
aI230
aI1137
aI262
aI964
aI519
aI412
aI923
aI267
aI694
aI116
aI1532
aI2346
aI171
aI261
aI2852
aI184
aI699
aI305
aI103
aI125
aI212
aI341
aI337
aI3849
aI1545
aI104
aI1439
aI280
aI273
aI299
aI821
aI494
aI275
aI100
aI210
aI665
aI119
aI274
aI12
aI282
aI103
aI307
aI119
aI307
aI668
aI1190
aI277
aI1268
aI1350
aI440
aI219
aI426
aI227
aI477
aI641
aI579
aI504
aI211
aI258
aI408
aI461
aI278
aI254
aI306
aI501
aI507
aI426
aI1414
aI305
aI501
aI287
aI202
aI1233
aI328
aI439
aI223
aI270
aI233
aI892
aI109
aI571
aI251
aI2584
aI801
aa(lp9
I486
aI763
aI89
aI204
aI262
aI708
aI762
aI447
aI841
aI420
aI700
aI444
aI230
aI511
aI224
aI218
aI565
aI1109
aI245
aI496
aI1244
aI293
aI531
aI249
aI78
aI1156
aI735
aI533
aI554
aI208
aI750
aI290
aI261
aI993
aI102
aI251
aI1044
aI470
aI87
aI471
aI702
aI669
aI500
aI254
aI191
aI720
aI417
aI291
aI227
aI368
aI650
aI35
aI111
aI125
aI658
aI233
aI1323
aI18
aI531
aI717
aI1100
aI498
aI111
aI264
aI590
aI474
aI446
aI289
aI203
aI219
aI247
aI407
aI1700
aI266
aI70
aI215
aI1605
aI431
aI234
aI529
aI260
aI280
aI265
aI503
aI824
aI605
aI534
aI459
aI1152
aI251
aI251
aI314
aI437
aI158
aI1760
aI750
aI485
aI531
aI541
aI444
aI467
aI1
aI98
aI1247
aI446
aI3091
aI425
aI108
aI256
aI526
aI436
aI224
aI248
aI225
aI421
aI476
aI244
aI568
aI206
aI243
aI216
aI432
aI258
aI611
aI432
aI1060
aI598
aI104
aI41
aI509
aI112
aI223
aI278
aI630
aI369
aI826
aI1161
aI249
aI174
aI229
aI824
aI1957
aI854
aI1874
aI158
aI91
aI223
aI1069
aI202
aI15
aI1141
aI178
aI236
aI521
aI214
aI3293
aI523
aI1039
aI109
aI273
aI93
aI244
aI224
aI3104
aI227
aI991
aI96
aI578
aI431
aI536
aI13
aI265
aI397
aI211
aI217
aI294
aI558
aI1092
aI39
aI468
aI648
aI405
aI1133
aI271
aI112
aI104
aI389
aI1053
aI199
aI665
aI513
aI768
aI707
aI479
aI2137
aI209
aI398
aI556
aI1390
aI551
aI1171
aI805
aI829
aI1154
aI233
aI474
aI231
aI436
aI666
aI598
aI685
aI4834
aI1453
aI666
aI238
aI269
aI294
aI251
aI441
aI836
aI530
aI354
aI474
aI166
aI1183
aI399
aI222
aI226
aI516
aI216
aI554
aI105
aI476
aI541
aI444
aI416
aI1457
aI275
aI1283
aI213
aI528
aI618
aI270
aI283
aI45
aI379
aI192
aI1225
aI72
aI620
aI15
aI222
aI1113
aI764
aI214
aI93
aI175
aI253
aI3503
aI2226
aI517
aI307
aI214
aI237
aI410
aI484
aI43
aI697
aI443
aI236
aI517
aI4309
aI229
aI1596
aI515
aI95
aI482
aI501
aI10528
aI105
aI233
aI409
aI209
aI224
aI972
aI968
aI543
aI171
aI182
aI1189
aI226
aI724
aI169
aI623
aI2587
aI434
aI838
aI115
aI272
aI290
aI220
aI1076
aI112
aI42
aI234
aI187
aI90
aI642
aI801
aI1008
aI112
aI534
aI604
aI1158
aI1045
aI176
aI238
aI535
aI1998
aI229
aI290
aI232
aI518
aI547
aI293
aI210
aI452
aI557
aI711
aI194
aI171
aI253
aI998
aI523
aI40
aI239
aI221
aI238
aI459
aI708
aI582
aI1954
aI532
aI68
aI723
aI567
aI782
aI529
aI420
aI101
aI694
aI266
aI81
aI211
aI398
aI513
aI235
aI250
aI706
aI610
aI202
aI426
aI260
aI687
aI230
aI250
aI750
aI1256
aI243
aI595
aI244
aI776
aI523
aI594
aI587
aI1714
aI538
aI220
aI225
aI424
aI4136
aI495
aI266
aI2813
aI100
aI550
aI1085
aI104
aI40
aI773
aI380
aI651
aI207
aI557
aI263
aI238
aI112
aI218
aI109
aI229
aI573
aI606
aI540
aI195
aI520
aI1781
aI1355
aI257
aI177
aI572
aI610
aI424
aI199
aI115
aI598
aI401
aI91
aI585
aI519
aI501
aI464
aI246
aI589
aI559
aI1041
aI1400
aI204
aI758
aI772
aI1145
aI221
aI302
aI704
aI229
aI177
aI739
aI666
aI244
aI229
aI86
aI536
aI72
aI409
aI389
aI481
aI174
aI3127
aI88
aI225
aI582
aI426
aI1219
aI1076
aI430
aI1125
aI83
aI277
aI292
aI209
aI269
aI516
aI479
aI747
aI157
aI209
aI96
aI41
aI233
aI654
aI512
aI731
aI257
aI399
aI1559
aI541
aI1369
aI971
aI471
aI16
aI476
aI484
aI38
aI213
aI44
aI3544
aI1420
aI272
aI214
aI790
aI538
aI241
aI420
aI197
aI225
aI395
aI414
aI396
aI483
aI209
aI208
aI520
aI951
aI1290
aI546
aI605
aI1069
aI624
aI93
aI640
aI228
aI295
aI1149
aI390
aI910
aI614
aI286
aI707
aI593
aI535
aI221
aI805
aI19
aI100
aI116
aI698
aI463
aI407
aI514
aI456
aI1340
aI546
aI209
aI110
aI451
aI254
aI543
aI90
aI10708
aI752
aI541
aI846
aI217
aI287
aI213
aI282
aI1194
aI560
aI509
aI259
aI503
aI765
aI250
aI290
aI201
aI560
aI161
aI203
aI640
aI173
aI286
aI166
aI116
aI288
aI279
aI866
aI1245
aI218
aI625
aI1292
aI516
aI232
aI1093
aI1451
aI216
aI600
aI827
aI1065
aI1302
aI538
aI3884
aI202
aI1745
aI512
aI742
aI278
aI229
aI1081
aI385
aI237
aI756
aI252
aI249
aI221
aI637
aI713
aI250
aI17
aI590
aI518
aI1134
aI205
aI92
aI80
aI298
aI280
aI255
aI267
aI400
aI581
aI230
aI1049
aI568
aI369
aI221
aI241
aI517
aI251
aI16
aI10274
aI443
aI105
aI215
aI185
aI406
aI198
aI241
aI1215
aI1086
aI527
aI208
aI547
aI1311
aI420
aI222
aI230
aI536
aI91
aI396
aI714
aI217
aI570
aI95
aI371
aI210
aI414
aI674
aI52
aI1160
aI235
aI256
aI118
aI449
aI425
aI166
aI188
aI156
aI1027
aI530
aI250
aI39222
aI850
aI159
aI231
aI216
aI40
aI597
aI932
aI945
aI720
aI510
aI115
aI757
aI285
aI970
aI193
aI2933
aI560
aI167
aI159
aI853
aI109
aI99
aI274
aI406
aI389
aI235
aI1025
aI551
aI200
aI665
aI187
aI172
aI1371
aI578
aI589
aI206
aI103
aI1752
aI241
aI213
aI103
aI225
aI3053
aI1147
aI210
aI3380
aI1806
aI533
aI99
aI2121
aI89
aI442
aI106
aI15
aI577
aI231
aI1165
aI305
aI259
aI1330
aI45
aI223
aI574
aI208
aI106
aI1097
aI232
aI654
aI37
aI455
aI229
aI266
aI1067
aI1058
aI419
aI1153
aI342
aI220
aI249
aI222
aI626
aI238
aI1126
aI161
aI224
aI250
aI529
aI204
aI258
aI370
aI1085
aI204
aI532
aI539
aI1146
aI540
aI511
aI409
aI1129
aI755
aI800
aI231
aI85
aI35
aI234
aI235
aI486
aI208
aI482
aI701
aI388
aI276
aI596
aI459
aI261
aI1053
aI220
aI199
aI398
aI85
aI192
aI422
aI234
aI1176
aI1557
aI150
aI776
aI215
aI211
aI621
aI577
aI40
aI39
aI834
aI174
aI2645
aI291
aI1026
aI413
aI394
aI35
aI1340
aI184
aI737
aI777
aI1164
aI216
aI730
aI208
aI471
aI459
aI215
aI261
aI255
aI608
aI15
aI207
aI171
aI379
aI642
aI109
aI198
aI1306
aI684
aI294
aI147
aI212
aI242
aI95
aI435
aI500
aI292
aI280
aI723
aI191
aI442
aI214
aI202
aI715
aI506
aI505
aI280
aI82
aI242
aI77
aI266
aI94
aI526
aI40
aI555
aI518
aI110
aI1887
aI738
aI231
aI288
aI432
aI1214
aI2482
aI440
aI101
aI218
aI212
aI544
aI44
aI1035
aI214
aI826
aI565
aI336
aI266
aI44
aI764
aI949
aI206
aI783
aI209
aI759
aI1013
aI617
aI396
aI411
aI39
aI421
aI516
aI97
aI1651
aI595
aI1801
aI840
aI245
aI257
aI386
aI767
aI223
aI3166
aI1136
aI101
aI701
aI554
aI793
aI279
aI203
aI379
aI101
aI211
aI544
aI495
aI458
aI125
aI167
aI776
aI422
aI229
aI198
aI10049
aI240
aI213
aI258
aI394
aI742
aI299
aI2248
aI1310
aI1390
aI701
aI427
aI157
aI158
aI229
aI105
aI213
aI1367
aI1259
aI474
aI557
aI106
aI469
aI220
aI249
aI213
aI178
aI193
aI99
aI16
aI764
aI514
aI283
aI203
aI93
aI268
aI241
aI182
aI428
aI933
aI445
aI252
aI211
aI267
aI206
aI540
aI1109
aI567
aI1432
aI548
aI578
aI112
aI228
aI224
aI412
aI537
aI489
aI223
aI663
aI274
aI370
aI190
aI445
aI531
aI224
aI269
aI108
aI1100
aI1030
aI547
aI421
aI549
aI292
aI1332
aI1303
aI4114
aI409
aI1265
aI610
aI90
aI218
aI962
aI583
aI526
aI206
aa(lp10
I234
aI258
aI508
aI173
aI239
aI1284
aI216
aI216
aI541
aI207
aI513
aI245
aI208
aI226
aI356
aI246
aI245
aI451
aI579
aI744
aI164
aI100
aI667
aI197
aI368
aI245
aI354
aI40
aI1000
aI644
aI102
aI459
aI98
aI514
aI1063
aI274
aI46
aI374
aI370
aI450
aI1217
aI258
aI501
aI256
aI2
aI1239
aI2787
aI201
aI477
aI271
aI218
aI867
aI467
aI356
aI108
aI469
aI1018
aI45
aI389
aI500
aI616
aI15
aI225
aI242
aI80
aI378
aI101
aI428
aI793
aI94
aI94
aI463
aI917
aI370
aI495
aI90
aI1018
aI238
aI506
aI927
aI365
aI748
aI1150
aI362
aI220
aI408
aI205
aI240
aI210
aI471
aI620
aI2814
aI2157
aI213
aI984
aI114
aI384
aI235
aI376
aI2736
aI43
aI812
aI516
aI490
aI271
aI896
aI475
aI470
aI378
aI95
aI167
aI253
aI146
aI214
aI381
aI1062
aI240
aI262
aI12
aI186
aI368
aI595
aI647
aI101
aI475
aI208
aI243
aI706
aI411
aI575
aI549
aI518
aI1082
aI41
aI655
aI102
aI210
aI458
aI147
aI372
aI393
aI410
aI642
aI588
aI218
aI169
aI695
aI254
aI288
aI376
aI222
aI391
aI518
aI593
aI1793
aI1157
aI487
aI225
aI420
aI462
aI539
aI104
aI437
aI585
aI401
aI547
aI521
aI7000
aI257
aI224
aI1334
aI960
aI217
aI229
aI260
aI207
aI328
aI1132
aI211
aI387
aI359
aI95
aI1117
aI201
aI228
aI243
aI1010
aI442
aI1690
aI113
aI218
aI1086
aI493
aI392
aI210
aI621
aI511
aI235
aI197
aI448
aI231
aI972
aI209
aI314
aI2899
aI164
aI215
aI495
aI40
aI1193
aI451
aI243
aI243
aI587
aI2348
aI916
aI598
aI78
aI1068
aI707
aI95
aI274
aI17
aI426
aI242
aI289
aI1268
aI406
aI97
aI880
aI407
aI176
aI219
aI520
aI491
aI378
aI478
aI363
aI192
aI686
aI97
aI258
aI168
aI256
aI934
aI392
aI227
aI96
aI705
aI243
aI383
aI226
aI224
aI77
aI458
aI958
aI87
aI151
aI541
aI539
aI240
aI464
aI490
aI153
aI416
aI240
aI94
aI617
aI462
aI418
aI1012
aI96
aI1175
aI99
aI40
aI222
aI714
aI968
aI92
aI164
aI469
aI235
aI227
aI159
aI416
aI195
aI179
aI198
aI514
aI991
aI282
aI89
aI365
aI325
aI96
aI261
aI231
aI633
aI1005
aI554
aI1233
aI419
aI1188
aI646
aI456
aI234
aI658
aI244
aI257
aI278
aI209
aI413
aI178
aI255
aI726
aI1107
aI214
aI197
aI589
aI717
aI1656
aI226
aI457
aI2073
aI1017
aI439
aI111
aI960
aI1064
aI475
aI573
aI198
aI104
aI1370
aI201
aI1019
aI92
aI255
aI915
aI411
aI240
aI2096
aI168
aI199
aI255
aI223
aI236
aI469
aI390
aI133
aI93
aI88
aI235
aI366
aI16
aI240
aI243
aI461
aI112
aI500
aI213
aI215
aI495
aI1045
aI685
aI251
aI223
aI461
aI482
aI104
aI154
aI247
aI709
aI160
aI505
aI435
aI157
aI214
aI1187
aI597
aI565
aI42
aI464
aI96
aI452
aI426
aI278
aI2405
aI192
aI471
aI18
aI217
aI375
aI1115
aI423
aI104
aI202
aI193
aI260
aI189
aI244
aI402
aI373
aI88
aI237
aI107
aI214
aI220
aI1868
aI334
aI418
aI3653
aI101
aI671
aI242
aI79
aI980
aI404
aI496
aI1383
aI218
aI41
aI1361
aI87
aI208
aI499
aI466
aI210
aI161
aI601
aI952
aI360
aI203
aI481
aI109
aI236
aI726
aI1875
aI205
aI557
aI595
aI238
aI220
aI2
aI376
aI677
aI215
aI392
aI223
aI236
aI426
aI98
aI708
aI271
aI465
aI370
aI380
aI18
aI195
aI1882
aI887
aI403
aI106
aI201
aI1154
aI102
aI694
aI434
aI198
aI46
aI206
aI39
aI192
aI511
aI250
aI200
aI228
aI623
aI213
aI104
aI256
aI244
aI482
aI1251
aI95
aI455
aI470
aI207
aI392
aI41
aI483
aI495
aI249
aI585
aI251
aI2361
aI267
aI2613
aI224
aI196
aI587
aI94
aI366
aI370
aI286
aI1212
aI142
aI621
aI241
aI177
aI258
aI207
aI506
aI3113
aI86
aI243
aI220
aI105
aI573
aI3359
aI376
aI118
aI4
aI519
aI220
aI384
aI454
aI544
aI95
aI518
aI212
aI463
aI998
aI44
aI216
aI648
aI113
aI466
aI109
aI95
aI411
aI230
aI733
aI554
aI1018
aI274
aI463
aI38
aI475
aI974
aI461
aI480
aI249
aI81
aI617
aI214
aI395
aI379
aI848
aI452
aI225
aI490
aI207
aI47
aI170
aI397
aI934
aI428
aI1049
aI94
aI263
aI579
aI111
aI354
aI354
aI1051
aI531
aI368
aI211
aI1036
aI358
aI245
aI1188
aI370
aI246
aI263
aI595
aI205
aI589
aI380
aI41
aI279
aI716
aI424
aI192
aI140
aI272
aI249
aI1171
aI590
aI646
aI472
aI369
aI494
aI253
aI102
aI220
aI245
aI204
aI387
aI1106
aI104
aI511
aI249
aI492
aI914
aI497
aI471
aI957
aI75
aI1179
aI468
aI229
aI497
aI705
aI2464
aI83
aI229
aI370
aI92
aI2544
aI268
aI225
aI77
aI266
aI198
aI414
aI384
aI277
aI485
aI377
aI911
aI485
aI979
aI257
aI249
aI198
aI285
aI491
aI224
aI231
aI965
aI407
aI1001
aI222
aI481
aI9061
aI243
aI234
aI178
aI201
aI671
aI193
aI3398
aI17
aI100
aI350
aI223
aI92
aI115
aI412
aI14
aI1078
aI228
aI205
aI45
aI218
aI348
aI97
aI482
aI932
aI235
aI46
aI272
aI153
aI449
aI91
aI653
aI645
aI625
aI345
aI427
aI819
aI613
aI377
aI504
aI199
aI193
aI97
aI200
aI426
aI458
aI369
aI205
aI90
aI2114
aI486
aI1116
aI231
aI418
aI237
aI286
aI473
aI201
aI577
aI229
aI217
aI269
aI986
aI13
aI352
aI91
aI856
aI158
aI252
aI2879
aI221
aI151
aI516
aI227
aI779
aI411
aI196
aI381
aI238
aI610
aI401
aI474
aI1068
aI469
aI396
aI2
aI366
aI43
aI454
aI233
aI681
aI1220
aI228
aI856
aI106
aI497
aI416
aI578
aI1488
aI98
aI727
aI384
aI971
aI589
aI420
aI92
aI363
aI220
aI1371
aI648
aI85
aI502
aI1010
aI261
aI971
aI398
aI2810
aI200
aI728
aI244
aI594
aI476
aI193
aI244
aI695
aI175
aI443
aI639
aI348
aI16
aI372
aI207
aI180
aI3063
aI87
aI42
aI518
aI851
aI1105
aI100
aI487
aI381
aI110
aI551
aI380
aI595
aI190
aI1073
aI1073
aI250
aI93
aI412
aI736
aI995
aI213
aI466
aI218
aI407
aI29
aI453
aI880
aI472
aI70
aI104
aI99
aI45
aI381
aI172
aI482
aI221
aI413
aI216
aI189
aI1145
aI496
aI652
aI217
aI211
aI194
aI411
aI150
aI209
aI198
aI39
aI278
aI409
aI211
aI3731
aI250
aI715
aI82
aI477
aI91
aI188
aI1070
aI205
aI226
aI469
aI108
aI401
aI1092
aI279
aI662
aI951
aI244
aI559
aI82
aI346
aI223
aI198
aI266
aI389
aI415
aI532
aI208
aI277
aI37
aI42
aI81
aI207
aI112
aI209
aI217
aI235
aI231
aI721
aI247
aI107
aI67
aI107
aI217
aI1444
aI1247
aI526
aI481
aI40
aI151
aI417
aI410
aI661
aI211
aI3045
aI90
aI495
aI410
aI66
aI414
aI211
aI106
aI3137
aI76
aI362
aI408
aI743
aI271
aI2410
aI465
aI93
aI252
aI500
aI426
aI289
aI44
aI499
aI352
aI1047
aI95
aI15
aI1239
aI263
aI87
aI458
aI503
aI218
aI84
aI211
aI427
aI836
aI95
aI197
aI245
aI455
aI643
aI205
aI435
aI87
aI114
aI44
aI561
aI649
aI439
aI226
aI1337
aI2
aI496
aI642
aI364
aI108
aI18
aI238
aI1983
aI223
aI30
aI1056
aI372
aI701
aI265
aI168
aI210
aI247
aI216
aI880
aI452
aI117
aI764
aI406
aI253
aI273
aI632
aI95
aI261
aI504
aI163
aI384
aI354
aI196
aI467
aI93
aI1246
aI190
aI500
aI266
aI942
aI720
aI162
aI517
aI658
aI1215
aI585
aI242
aI377
aI540
aI100
aI99
aa(lp11
I778
aI987
aI195
aI254
aI186
aI89
aI238
aI93
aI366
aI82
aI486
aI882
aI577
aI147
aI909
aI905
aI411
aI224
aI434
aI89
aI644
aI440
aI224
aI179
aI200
aI476
aI938
aI647
aI444
aI1008
aI172
aI84
aI173
aI217
aI391
aI199
aI204
aI255
aI351
aI473
aI90
aI92
aI94
aI626
aI387
aI515
aI1090
aI13
aI870
aI1109
aI40
aI240
aI207
aI79
aI1021
aI196
aI391
aI239
aI399
aI161
aI452
aI859
aI226
aI260
aI531
aI212
aI870
aI406
aI38
aI97
aI96
aI37
aI391
aI90
aI222
aI390
aI209
aI202
aI864
aI456
aI240
aI574
aI198
aI193
aI88
aI211
aI210
aI238
aI223
aI675
aI369
aI322
aI35
aI546
aI91
aI172
aI660
aI370
aI627
aI440
aI448
aI604
aI399
aI878
aI152
aI489
aI86
aI343
aI3052
aI1063
aI225
aI371
aI651
aI172
aI677
aI421
aI180
aI37
aI439
aI190
aI1753
aI457
aI250
aI336
aI13
aI174
aI96
aI902
aI458
aI170
aI244
aI2
aI328
aI175
aI756
aI407
aI432
aI890
aI217
aI181
aI36
aI424
aI367
aI470
aI354
aI451
aI629
aI948
aI186
aI610
aI438
aI198
aI637
aI861
aI183
aI417
aI109
aI207
aI83
aI205
aI749
aI349
aI619
aI202
aI390
aI99
aI449
aI519
aI85
aI403
aI543
aI14
aI627
aI384
aI847
aI593
aI895
aI149
aI934
aI419
aI597
aI919
aI222
aI210
aI223
aI92
aI434
aI228
aI69
aI218
aI39
aI198
aI407
aI173
aI178
aI192
aI185
aI323
aI440
aI241
aI377
aI203
aI470
aI871
aI973
aI920
aI71
aI236
aI442
aI357
aI252
aI500
aI374
aI184
aI328
aI2405
aI196
aI500
aI625
aI195
aI372
aI385
aI927
aI1861
aI1344
aI103
aI183
aI387
aI1744
aI412
aI200
aI331
aI447
aI602
aI258
aI376
aI194
aI212
aI431
aI235
aI332
aI2393
aI535
aI474
aI201
aI254
aI451
aI197
aI107
aI85
aI82
aI105
aI219
aI87
aI240
aI203
aI565
aI88
aI324
aI95
aI102
aI382
aI191
aI216
aI93
aI537
aI198
aI245
aI385
aI86
aI608
aI337
aI204
aI352
aI153
aI77
aI591
aI211
aI398
aI237
aI36
aI207
aI182
aI206
aI83
aI178
aI197
aI536
aI452
aI884
aI457
aI492
aI447
aI438
aI249
aI1212
aI109
aI430
aI257
aI96
aI461
aI343
aI587
aI104
aI189
aI476
aI630
aI482
aI229
aI194
aI1206
aI188
aI483
aI91
aI512
aI563
aI866
aI96
aI402
aI219
aI671
aI260
aI427
aI332
aI246
aI154
aI342
aI784
aI139
aI626
aI458
aI84
aI356
aI2566
aI354
aI340
aI407
aI95
aI83
aI450
aI101
aI595
aI216
aI338
aI236
aI461
aI368
aI3577
aI433
aI2686
aI13
aI2078
aI587
aI199
aI225
aI217
aI1057
aI224
aI315
aI798
aI1191
aI183
aI1201
aI579
aI43
aI826
aI632
aI82
aI130
aI1096
aI1202
aI1052
aI37
aI909
aI483
aI391
aI449
aI543
aI406
aI173
aI922
aI594
aI552
aI543
aI515
aI100
aI338
aI94
aI91
aI209
aI85
aI92
aI179
aI653
aI205
aI206
aI102
aI579
aI572
aI81
aI668
aI215
aI1178
aI129
aI435
aI191
aI39
aI207
aI215
aI231
aI235
aI459
aI653
aI433
aI87
aI622
aI125
aI212
aI430
aI204
aI392
aI403
aI391
aI229
aI393
aI447
aI79
aI192
aI540
aI233
aI551
aI1060
aI1089
aI355
aI83
aI911
aI588
aI1097
aI403
aI242
aI362
aI199
aI95
aI223
aI524
aI338
aI1141
aI426
aI168
aI100
aI224
aI226
aI250
aI515
aI70
aI378
aI433
aI242
aI189
aI931
aI201
aI191
aI68
aI155
aI510
aI902
aI198
aI97
aI203
aI556
aI182
aI203
aI234
aI600
aI265
aI350
aI538
aI98
aI186
aI216
aI629
aI530
aI452
aI113
aI208
aI382
aI242
aI1118
aI99
aI192
aI595
aI496
aI538
aI232
aI227
aI324
aI244
aI189
aI444
aI479
aI902
aI645
aI516
aI546
aI905
aI386
aI562
aI1233
aI200
aI158
aI380
aI252
aI351
aI187
aI196
aI83
aI204
aI84
aI194
aI477
aI396
aI226
aI407
aI95
aI315
aI1051
aI933
aI181
aI289
aI505
aI40
aI437
aI234
aI184
aI16
aI211
aI815
aI318
aI643
aI556
aI532
aI1002
aI221
aI44
aI365
aI427
aI463
aI175
aI530
aI222
aI451
aI2746
aI448
aI426
aI154
aI242
aI229
aI242
aI369
aI239
aI437
aI168
aI857
aI243
aI2087
aI587
aI100
aI85
aI326
aI191
aI817
aI207
aI35
aI676
aI454
aI428
aI180
aI479
aI163
aI628
aI227
aI94
aI846
aI425
aI436
aI188
aI103
aI193
aI98
aI1245
aI256
aI210
aI189
aI208
aI222
aI352
aI2205
aI157
aI165
aI206
aI365
aI174
aI400
aI457
aI330
aI374
aI230
aI369
aI187
aI228
aI448
aI93
aI1042
aI91
aI82
aI91
aI459
aI248
aI347
aI196
aI430
aI211
aI239
aI216
aI450
aI2362
aI87
aI234
aI195
aI416
aI210
aI372
aI332
aI383
aI213
aI650
aI348
aI40
aI34
aI176
aI1198
aI426
aI96
aI236
aI467
aI450
aI538
aI194
aI228
aI799
aI214
aI609
aI363
aI1197
aI245
aI188
aI877
aI225
aI530
aI222
aI166
aI411
aI1481
aI332
aI596
aI438
aI90
aI228
aI178
aI75
aI218
aI230
aI35
aI191
aI403
aI132
aI499
aI177
aI394
aI19
aI146
aI1010
aI81
aI397
aI375
aI931
aI225
aI1019
aI919
aI99
aI86
aI936
aI491
aI219
aI426
aI190
aI996
aI210
aI192
aI223
aI89
aI215
aI90
aI608
aI578
aI204
aI353
aI452
aI232
aI191
aI195
aI175
aI213
aI224
aI2500
aI198
aI33
aI896
aI473
aI1958
aI1118
aI487
aI742
aI179
aI94
aI485
aI181
aI871
aI629
aI184
aI356
aI468
aI93
aI953
aI189
aI172
aI475
aI579
aI215
aI639
aI192
aI205
aI430
aI595
aI622
aI202
aI458
aI219
aI524
aI78
aI394
aI86
aI2056
aI466
aI38
aI873
aI218
aI853
aI624
aI1192
aI356
aI70
aI209
aI430
aI221
aI229
aI224
aI340
aI659
aI223
aI212
aI1716
aI1260
aI174
aI1238
aI218
aI193
aI216
aI402
aI256
aI352
aI120
aI366
aI184
aI161
aI420
aI578
aI372
aI88
aI174
aI1032
aI204
aI220
aI62
aI965
aI644
aI15
aI1231
aI487
aI174
aI438
aI441
aI106
aI895
aI456
aI1125
aI169
aI367
aI15
aI201
aI103
aI438
aI441
aI46
aI195
aI194
aI214
aI541
aI89
aI201
aI46
aI192
aI89
aI386
aI190
aI151
aI194
aI187
aI90
aI334
aI156
aI338
aI146
aI183
aI356
aI223
aI608
aI378
aI186
aI523
aI203
aI340
aI174
aI244
aI357
aI1787
aI331
aI502
aI2380
aI404
aI819
aI1145
aI838
aI438
aI889
aI180
aI366
aI221
aI189
aI911
aI199
aI38
aI195
aI200
aI530
aI345
aI441
aI184
aI207
aI231
aI1857
aI82
aI792
aI892
aI901
aI399
aI176
aI779
aI71
aI250
aI198
aI428
aI421
aI578
aI2319
aI370
aI102
aI179
aI83
aI185
aI248
aI173
aI1759
aI914
aI233
aI193
aI390
aI305
aI523
aI194
aI637
aI194
aI1140
aI195
aI192
aI434
aI101
aI202
aI414
aI308
aI430
aI370
aI2311
aI218
aI336
aI507
aI96
aI871
aI462
aI467
aI96
aI456
aI583
aI42
aI417
aI343
aI364
aI74
aI49
aI596
aI190
aI517
aI961
aI2503
aI659
aI800
aI427
aI444
aI950
aI1526
aI516
aI514
aI587
aI588
aI38
aI105
aI100
aI195
aI206
aI193
aI1124
aI105
aI485
aI189
aI181
aI66
aI380
aI192
aI71
aI82
aI921
aI33
aI1091
aI350
aI345
aI429
aI214
aI198
aI614
aI204
aI569
aI208
aI84
aI359
aI194
aI893
aI168
aI65
aI1108
aI237
aI90
aI340
aI215
aI475
aI552
aI183
aI342
aI100
aI223
aI458
aI83
aI225
aI0
aI239
aI182
aI188
aI361
aI690
aI186
aI209
aa(lp12
I486
aI89
aI397
aI2691
aI620
aI221
aI1025
aI588
aI191
aI1033
aI201
aI44
aI395
aI189
aI195
aI99
aI352
aI70
aI134
aI90
aI441
aI412
aI202
aI574
aI438
aI343
aI251
aI540
aI185
aI542
aI533
aI145
aI174
aI204
aI114
aI896
aI438
aI814
aI91
aI226
aI89
aI834
aI2363
aI196
aI1744
aI38
aI446
aI201
aI1650
aI230
aI590
aI194
aI408
aI97
aI430
aI511
aI1109
aI162
aI433
aI185
aI1121
aI929
aI191
aI359
aI179
aI243
aI404
aI422
aI442
aI83
aI370
aI370
aI597
aI563
aI82
aI397
aI220
aI257
aI411
aI106
aI202
aI471
aI526
aI330
aI996
aI429
aI295
aI86
aI411
aI450
aI325
aI221
aI464
aI408
aI80
aI181
aI421
aI454
aI173
aI187
aI65
aI902
aI833
aI187
aI541
aI460
aI353
aI182
aI195
aI224
aI439
aI194
aI434
aI2562
aI200
aI300
aI415
aI584
aI523
aI325
aI452
aI2204
aI313
aI192
aI229
aI483
aI214
aI200
aI179
aI237
aI373
aI338
aI439
aI92
aI349
aI226
aI1827
aI341
aI311
aI400
aI775
aI193
aI86
aI341
aI147
aI546
aI87
aI39
aI241
aI816
aI198
aI463
aI180
aI1124
aI197
aI1084
aI197
aI390
aI315
aI934
aI416
aI188
aI210
aI189
aI147
aI596
aI400
aI203
aI186
aI4226
aI1217
aI36
aI441
aI749
aI85
aI342
aI338
aI27
aI853
aI825
aI215
aI87
aI190
aI1091
aI196
aI90
aI180
aI426
aI239
aI15
aI224
aI411
aI405
aI497
aI208
aI339
aI536
aI375
aI603
aI750
aI222
aI350
aI193
aI449
aI1419
aI873
aI844
aI190
aI857
aI36
aI2084
aI39
aI408
aI459
aI374
aI503
aI590
aI450
aI332
aI5136
aI1094
aI213
aI88
aI854
aI319
aI194
aI210
aI178
aI83
aI363
aI236
aI156
aI534
aI105
aI448
aI227
aI415
aI327
aI1040
aI88
aI235
aI424
aI189
aI15
aI351
aI462
aI316
aI210
aI423
aI35
aI201
aI440
aI200
aI3162
aI427
aI185
aI94
aI548
aI471
aI339
aI545
aI419
aI89
aI369
aI161
aI203
aI435
aI15
aI1241
aI2220
aI705
aI214
aI92
aI872
aI382
aI165
aI191
aI1170
aI231
aI558
aI451
aI441
aI302
aI83
aI210
aI327
aI202
aI507
aI233
aI354
aI89
aI229
aI2285
aI884
aI380
aI198
aI315
aI541
aI181
aI40
aI98
aI1781
aI474
aI185
aI334
aI330
aI360
aI216
aI428
aI193
aI411
aI596
aI223
aI375
aI433
aI77
aI570
aI401
aI937
aI853
aI882
aI233
aI198
aI93
aI138
aI41
aI242
aI222
aI448
aI236
aI183
aI245
aI84
aI170
aI1029
aI247
aI83
aI559
aI183
aI455
aI224
aI207
aI82
aI448
aI328
aI521
aI933
aI1252
aI807
aI343
aI199
aI89
aI89
aI411
aI198
aI192
aI386
aI212
aI71
aI1387
aI465
aI347
aI160
aI429
aI209
aI2875
aI204
aI248
aI41
aI844
aI42
aI511
aI14
aI324
aI452
aI192
aI86
aI196
aI147
aI830
aI204
aI237
aI213
aI535
aI36
aI436
aI736
aI396
aI86
aI620
aI190
aI37
aI2344
aI221
aI437
aI1031
aI1758
aI223
aI243
aI462
aI194
aI194
aI281
aI330
aI208
aI547
aI2100
aI450
aI453
aI201
aI205
aI542
aI201
aI187
aI220
aI211
aI236
aI519
aI194
aI97
aI86
aI311
aI95
aI478
aI197
aI195
aI419
aI824
aI172
aI218
aI2
aI873
aI212
aI753
aI77
aI315
aI2
aI416
aI94
aI224
aI649
aI257
aI135
aI447
aI434
aI99
aI558
aI412
aI845
aI220
aI187
aI91
aI416
aI230
aI327
aI445
aI458
aI176
aI609
aI852
aI584
aI166
aI350
aI1570
aI191
aI370
aI460
aI224
aI421
aI811
aI1070
aI482
aI181
aI343
aI327
aI415
aI190
aI564
aI211
aI319
aI205
aI801
aI361
aI230
aI443
aI602
aI190
aI180
aI209
aI199
aI532
aI13
aI192
aI40
aI910
aI208
aI2263
aI391
aI705
aI443
aI187
aI2324
aI362
aI80
aI754
aI84
aI889
aI191
aI1000
aI443
aI172
aI784
aI405
aI200
aI205
aI331
aI238
aI432
aI222
aI217
aI499
aI618
aI389
aI602
aI445
aI166
aI80
aI773
aI438
aI165
aI88
aI192
aI192
aI442
aI372
aI431
aI61
aI198
aI191
aI183
aI576
aI89
aI85
aI394
aI827
aI436
aI81
aI625
aI447
aI162
aI189
aI314
aI466
aI341
aI1000
aI85
aI178
aI159
aI359
aI1375
aI89
aI421
aI461
aI89
aI310
aI184
aI405
aI699
aI427
aI940
aI239
aI344
aI410
aI417
aI336
aI239
aI380
aI177
aI168
aI732
aI174
aI951
aI91
aI204
aI292
aI41
aI199
aI415
aI207
aI874
aI577
aI408
aI618
aI615
aI574
aI211
aI348
aI81
aI214
aI88
aI515
aI183
aI188
aI364
aI338
aI192
aI410
aI38
aI221
aI418
aI202
aI97
aI359
aI72
aI747
aI237
aI143
aI427
aI640
aI982
aI195
aI494
aI42
aI422
aI341
aI193
aI1013
aI424
aI83
aI78
aI98
aI82
aI76
aI829
aI93
aI170
aI848
aI480
aI500
aI184
aI46
aI370
aI580
aI189
aI85
aI87
aI2139
aI539
aI194
aI398
aI813
aI160
aI186
aI77
aI84
aI209
aI901
aI91
aI786
aI364
aI2124
aI586
aI197
aI213
aI301
aI175
aI395
aI320
aI423
aI223
aI436
aI191
aI86
aI213
aI342
aI404
aI409
aI539
aI371
aI305
aI180
aI250
aI83
aI218
aI204
aI315
aI336
aI334
aI761
aI39
aI345
aI624
aI183
aI390
aI99
aI243
aI244
aI832
aI199
aI409
aI195
aI92
aI201
aI988
aI82
aI82
aI289
aI200
aI426
aI210
aI417
aI197
aI377
aI61
aI205
aI90
aI346
aI560
aI435
aI423
aI87
aI853
aI37
aI713
aI440
aI222
aI343
aI366
aI87
aI951
aI332
aI177
aI179
aI370
aI428
aI178
aI694
aI422
aI428
aI439
aI459
aI406
aI442
aI40
aI1657
aI225
aI201
aI833
aI38
aI450
aI403
aI373
aI206
aI732
aI377
aI653
aI220
aI1271
aI712
aI514
aI64
aI453
aI349
aI471
aI37
aI192
aI833
aI666
aI508
aI87
aI203
aI183
aI157
aI88
aI227
aI215
aI345
aI820
aI769
aI310
aI424
aI171
aI149
aI521
aI47
aI100
aI333
aI176
aI411
aI228
aI717
aI813
aI1199
aI560
aI474
aI551
aI100
aI313
aI412
aI77
aI188
aI170
aI324
aI460
aI477
aI186
aI319
aI83
aI418
aI1567
aI380
aI2037
aI341
aI232
aI94
aI38
aI1712
aI138
aI80
aI324
aI380
aI141
aI241
aI404
aI437
aI213
aI210
aI328
aI35
aI207
aI509
aI170
aI2409
aI190
aI374
aI218
aI596
aI339
aI340
aI196
aI719
aI968
aI571
aI519
aI444
aI332
aI431
aI413
aI788
aI2448
aI912
aI832
aI441
aI184
aI811
aI212
aI835
aI204
aI503
aI194
aI561
aI550
aI313
aI202
aI760
aI456
aI96
aI470
aI92
aI838
aI184
aI367
aI46
aI479
aI351
aI202
aI193
aI406
aI7606
aI184
aI349
aI872
aI158
aI449
aI2718
aI454
aI588
aI408
aI238
aI344
aI612
aI588
aI183
aI199
aI90
aI193
aI83
aI450
aI227
aI192
aI415
aI64
aI232
aI908
aI214
aI179
aI343
aI94
aI201
aI364
aI425
aI984
aI203
aI776
aI324
aI169
aI181
aI177
aI194
aI521
aI614
aI195
aI103
aI180
aI382
aI891
aI350
aI197
aI225
aI228
aI523
aI192
aI347
aI16
aI367
aI149
aI2160
aI67
aI150
aI587
aI968
aI477
aI836
aI190
aI512
aI184
aI35
aI17
aI147
aI459
aI550
aI82
aI95
aI792
aI449
aI35
aI238
aI187
aI450
aI318
aI519
aI391
aI385
aI97
aI84
aI426
aI864
aI40
aI416
aI215
aI94
aI203
aI1288
aI625
aI425
aI336
aI849
aI321
aI230
aI499
aI351
aI185
aI353
aI1
aI36
aI237
aI87
aI224
aI577
aI336
aI420
aI169
aI886
aI199
aI1177
aI92
aI457
aI349
aI610
aI43
aa(lp13
I82
aI168
aI478
aI325
aI206
aI486
aI474
aI295
aI186
aI418
aI172
aI238
aI419
aI471
aI83
aI326
aI41
aI186
aI237
aI838
aI226
aI503
aI347
aI66
aI391
aI165
aI91
aI215
aI79
aI6508
aI178
aI192
aI338
aI417
aI192
aI206
aI689
aI222
aI196
aI97
aI408
aI809
aI220
aI182
aI218
aI193
aI163
aI89
aI454
aI195
aI211
aI308
aI763
aI145
aI805
aI173
aI740
aI415
aI320
aI395
aI877
aI175
aI336
aI285
aI82
aI376
aI532
aI40
aI337
aI40
aI656
aI191
aI386
aI172
aI463
aI1079
aI355
aI185
aI415
aI377
aI189
aI333
aI201
aI468
aI196
aI202
aI300
aI201
aI207
aI441
aI456
aI208
aI355
aI172
aI208
aI232
aI847
aI336
aI171
aI200
aI183
aI454
aI524
aI127
aI229
aI438
aI155
aI197
aI216
aI503
aI383
aI596
aI189
aI330
aI434
aI398
aI207
aI438
aI288
aI84
aI1007
aI219
aI210
aI175
aI397
aI536
aI84
aI849
aI726
aI143
aI302
aI91
aI461
aI428
aI433
aI337
aI303
aI426
aI213
aI554
aI89
aI427
aI390
aI177
aI209
aI305
aI225
aI63
aI190
aI340
aI332
aI89
aI572
aI99
aI308
aI184
aI178
aI380
aI207
aI207
aI342
aI462
aI417
aI83
aI218
aI507
aI531
aI314
aI18
aI341
aI191
aI529
aI321
aI222
aI409
aI361
aI188
aI390
aI300
aI512
aI1927
aI564
aI176
aI528
aI366
aI879
aI183
aI97
aI381
aI224
aI90
aI968
aI589
aI37
aI40
aI470
aI334
aI227
aI576
aI370
aI191
aI81
aI447
aI33
aI189
aI278
aI174
aI287
aI385
aI894
aI311
aI189
aI440
aI810
aI444
aI350
aI205
aI213
aI229
aI202
aI185
aI411
aI587
aI220
aI372
aI390
aI173
aI341
aI304
aI995
aI166
aI324
aI888
aI1074
aI328
aI77
aI182
aI419
aI193
aI239
aI212
aI179
aI363
aI197
aI196
aI968
aI85
aI186
aI358
aI200
aI159
aI178
aI80
aI193
aI529
aI188
aI223
aI439
aI384
aI213
aI128
aI479
aI91
aI202
aI177
aI385
aI188
aI1009
aI221
aI431
aI150
aI205
aI35
aI185
aI498
aI873
aI89
aI213
aI189
aI95
aI213
aI337
aI180
aI180
aI431
aI185
aI384
aI774
aI367
aI196
aI401
aI209
aI537
aI506
aI1463
aI220
aI351
aI360
aI139
aI149
aI503
aI214
aI2091
aI308
aI176
aI418
aI314
aI400
aI132
aI411
aI1913
aI332
aI444
aI101
aI764
aI394
aI233
aI166
aI228
aI432
aI840
aI538
aI165
aI497
aI197
aI229
aI399
aI167
aI188
aI465
aI85
aI96
aI194
aI437
aI1517
aI369
aI184
aI318
aI368
aI420
aI128
aI347
aI38
aI423
aI1404
aI200
aI423
aI187
aI96
aI93
aI872
aI91
aI216
aI350
aI209
aI254
aI180
aI39
aI765
aI2370
aI397
aI359
aI201
aI154
aI223
aI205
aI198
aI1542
aI194
aI393
aI361
aI880
aI94
aI1011
aI328
aI323
aI84
aI194
aI186
aI196
aI359
aI309
aI364
aI450
aI229
aI184
aI473
aI428
aI223
aI38
aI319
aI594
aI328
aI399
aI348
aI214
aI174
aI408
aI188
aI852
aI427
aI203
aI294
aI126
aI80
aI37
aI93
aI321
aI514
aI204
aI38
aI771
aI202
aI219
aI216
aI170
aI237
aI308
aI199
aI83
aI311
aI174
aI687
aI376
aI78
aI159
aI417
aI2063
aI322
aI196
aI345
aI80
aI458
aI29
aI157
aI149
aI2025
aI413
aI105
aI371
aI178
aI174
aI463
aI475
aI195
aI210
aI319
aI88
aI757
aI180
aI174
aI88
aI322
aI189
aI186
aI323
aI148
aI408
aI371
aI193
aI212
aI707
aI310
aI280
aI181
aI84
aI289
aI345
aI780
aI366
aI399
aI99
aI93
aI471
aI171
aI170
aI500
aI171
aI524
aI172
aI413
aI554
aI418
aI306
aI452
aI293
aI869
aI2194
aI90
aI165
aI278
aI364
aI82
aI188
aI748
aI220
aI182
aI181
aI311
aI294
aI172
aI591
aI154
aI85
aI205
aI1988
aI356
aI200
aI365
aI190
aI183
aI303
aI777
aI199
aI97
aI35
aI93
aI1066
aI180
aI191
aI327
aI236
aI206
aI470
aI249
aI938
aI399
aI673
aI293
aI77
aI359
aI337
aI163
aI720
aI230
aI1022
aI149
aI875
aI89
aI39
aI408
aI305
aI324
aI133
aI183
aI350
aI414
aI474
aI179
aI511
aI2149
aI83
aI399
aI471
aI227
aI237
aI156
aI175
aI105
aI423
aI227
aI205
aI396
aI957
aI232
aI96
aI195
aI181
aI96
aI399
aI306
aI412
aI188
aI412
aI164
aI195
aI223
aI855
aI219
aI41
aI184
aI414
aI218
aI208
aI520
aI2093
aI212
aI326
aI2698
aI190
aI391
aI724
aI387
aI220
aI81
aI327
aI374
aI85
aI146
aI355
aI207
aI400
aI208
aI427
aI38
aI2062
aI221
aI1
aI314
aI305
aI2
aI433
aI1012
aI181
aI2
aI535
aI644
aI832
aI226
aI227
aI1167
aI227
aI143
aI1139
aI335
aI221
aI403
aI205
aI343
aI669
aI202
aI1959
aI14
aI203
aI421
aI200
aI229
aI77
aI76
aI393
aI361
aI311
aI179
aI396
aI783
aI282
aI447
aI225
aI376
aI223
aI84
aI221
aI550
aI185
aI186
aI748
aI216
aI340
aI188
aI182
aI152
aI553
aI403
aI288
aI1155
aI188
aI200
aI454
aI424
aI544
aI296
aI425
aI413
aI892
aI318
aI76
aI472
aI425
aI191
aI186
aI177
aI492
aI799
aI401
aI477
aI407
aI2094
aI445
aI435
aI79
aI172
aI324
aI36
aI536
aI781
aI39
aI944
aI568
aI1249
aI219
aI344
aI179
aI192
aI86
aI327
aI299
aI428
aI84
aI174
aI185
aI469
aI198
aI311
aI794
aI478
aI149
aI165
aI128
aI392
aI514
aI201
aI460
aI167
aI202
aI563
aI807
aI2372
aI88
aI17
aI772
aI353
aI203
aI73
aI2012
aI167
aI410
aI400
aI146
aI178
aI238
aI92
aI312
aI539
aI175
aI182
aI232
aI79
aI302
aI796
aI175
aI283
aI826
aI338
aI82
aI746
aI921
aI223
aI212
aI181
aI760
aI210
aI362
aI164
aI440
aI399
aI307
aI564
aI84
aI818
aI144
aI480
aI84
aI198
aI196
aI226
aI365
aI231
aI410
aI885
aI86
aI831
aI169
aI170
aI455
aI169
aI556
aI421
aI378
aI186
aI345
aI801
aI253
aI181
aI220
aI173
aI735
aI184
aI211
aI1086
aI362
aI199
aI526
aI145
aI490
aI1597
aI192
aI76
aI213
aI74
aI0
aI175
aI443
aI471
aI245
aI175
aI507
aI162
aI709
aI203
aI83
aI194
aI154
aI343
aI310
aI441
aI163
aI196
aI205
aI104
aI77
aI563
aI311
aI1030
aI171
aI877
aI818
aI444
aI80
aI208
aI84
aI200
aI362
aI480
aI191
aI400
aI312
aI232
aI213
aI673
aI441
aI197
aI195
aI397
aI203
aI577
aI79
aI2046
aI426
aI1049
aI40
aI414
aI169
aI402
aI144
aI428
aI296
aI84
aI158
aI335
aI457
aI180
aI214
aI291
aI345
aI196
aI317
aI63
aI514
aI392
aI427
aI322
aI408
aI238
aI190
aI175
aI2110
aI389
aI402
aI185
aI553
aI100
aI378
aI207
aI330
aI1077
aI786
aI174
aI208
aI348
aI216
aI350
aI216
aI194
aI579
aI417
aI172
aI239
aI204
aI157
aI213
aI1499
aI840
aI202
aI384
aI200
aI436
aI223
aI330
aI850
aI295
aI438
aI516
aI323
aI246
aI954
aI308
aI35
aI314
aI99
aI876
aI577
aI201
aI164
aI732
aI351
aI502
aI567
aI766
aI470
aI74
aI139
aI157
aI829
aI203
aI396
aI736
aI444
aI756
aI364
aI221
aI209
aI443
aI84
aI307
aI389
aI820
aI539
aI238
aI86
aI158
aI235
aI920
aI99
aI3049
aI301
aI203
aI211
aI814
aI403
aI314
aI207
aI557
aI530
aI181
aI149
aI39
aI204
aI709
aI182
aI704
aI86
aI200
aI170
aI482
aI345
aI353
aI182
aI848
aI232
aI188
aI1527
aI399
aI209
aI1035
aI317
aI235
aI409
aI179
aI197
aI300
aa(lp14
I75
aI157
aI528
aI166
aI146
aI228
aI443
aI142
aI191
aI394
aI380
aI213
aI428
aI430
aI214
aI501
aI501
aI202
aI410
aI98
aI410
aI917
aI178
aI82
aI315
aI750
aI369
aI753
aI463
aI190
aI427
aI204
aI191
aI422
aI200
aI359
aI94
aI92
aI91
aI181
aI209
aI342
aI211
aI170
aI1911
aI339
aI507
aI440
aI1188
aI444
aI489
aI40
aI393
aI392
aI1869
aI389
aI195
aI428
aI175
aI823
aI358
aI416
aI170
aI330
aI85
aI772
aI405
aI453
aI400
aI431
aI434
aI189
aI81
aI214
aI384
aI402
aI302
aI37
aI335
aI228
aI38
aI471
aI195
aI184
aI344
aI175
aI316
aI580
aI196
aI201
aI167
aI449
aI503
aI321
aI194
aI682
aI181
aI195
aI178
aI168
aI402
aI309
aI191
aI393
aI92
aI170
aI204
aI466
aI176
aI695
aI212
aI166
aI430
aI1152
aI231
aI164
aI714
aI382
aI310
aI327
aI879
aI401
aI176
aI738
aI391
aI186
aI192
aI193
aI385
aI184
aI412
aI165
aI34
aI85
aI196
aI343
aI536
aI620
aI1866
aI305
aI98
aI175
aI692
aI181
aI509
aI168
aI148
aI468
aI376
aI758
aI94
aI219
aI381
aI691
aI660
aI187
aI352
aI743
aI368
aI738
aI326
aI737
aI198
aI95
aI79
aI300
aI404
aI309
aI719
aI184
aI416
aI393
aI389
aI133
aI184
aI192
aI142
aI1377
aI236
aI811
aI192
aI417
aI485
aI415
aI298
aI186
aI317
aI81
aI183
aI512
aI517
aI389
aI198
aI186
aI175
aI171
aI327
aI38
aI416
aI84
aI184
aI1767
aI84
aI170
aI225
aI389
aI492
aI416
aI198
aI219
aI444
aI101
aI1941
aI83
aI178
aI180
aI282
aI416
aI746
aI485
aI812
aI39
aI189
aI493
aI204
aI757
aI719
aI200
aI195
aI664
aI376
aI296
aI177
aI415
aI340
aI297
aI84
aI212
aI218
aI637
aI463
aI80
aI188
aI215
aI187
aI839
aI116
aI180
aI389
aI582
aI4
aI180
aI407
aI378
aI81
aI897
aI182
aI91
aI321
aI420
aI38
aI585
aI396
aI98
aI420
aI429
aI395
aI476
aI224
aI397
aI214
aI491
aI225
aI176
aI1072
aI165
aI173
aI195
aI1922
aI228
aI184
aI384
aI39
aI325
aI1563
aI404
aI91
aI763
aI1580
aI92
aI398
aI460
aI655
aI80
aI421
aI1
aI299
aI219
aI569
aI952
aI472
aI680
aI200
aI355
aI395
aI327
aI185
aI37
aI792
aI187
aI211
aI402
aI172
aI305
aI164
aI162
aI178
aI215
aI175
aI965
aI776
aI369
aI390
aI383
aI178
aI528
aI214
aI91
aI135
aI365
aI522
aI869
aI1265
aI82
aI182
aI911
aI437
aI510
aI653
aI162
aI99
aI94
aI397
aI732
aI176
aI384
aI211
aI185
aI73
aI192
aI392
aI1057
aI86
aI187
aI316
aI92
aI810
aI177
aI319
aI210
aI165
aI716
aI364
aI359
aI73
aI380
aI210
aI65
aI783
aI215
aI171
aI493
aI383
aI396
aI425
aI46
aI186
aI516
aI165
aI471
aI202
aI354
aI751
aI425
aI224
aI196
aI378
aI185
aI706
aI183
aI169
aI1851
aI390
aI84
aI302
aI326
aI324
aI214
aI85
aI183
aI316
aI183
aI90
aI192
aI188
aI384
aI182
aI188
aI197
aI380
aI451
aI191
aI346
aI390
aI527
aI1858
aI137
aI353
aI432
aI413
aI2233
aI697
aI170
aI702
aI186
aI185
aI164
aI284
aI14
aI191
aI466
aI192
aI325
aI201
aI319
aI320
aI174
aI297
aI176
aI176
aI396
aI573
aI199
aI191
aI378
aI189
aI421
aI175
aI153
aI181
aI310
aI678
aI406
aI356
aI104
aI475
aI528
aI91
aI500
aI170
aI732
aI410
aI190
aI467
aI81
aI183
aI193
aI330
aI2261
aI788
aI481
aI35
aI135
aI172
aI192
aI83
aI1281
aI305
aI373
aI43
aI85
aI549
aI188
aI390
aI82
aI188
aI326
aI153
aI174
aI377
aI172
aI552
aI362
aI80
aI94
aI773
aI397
aI330
aI819
aI196
aI352
aI222
aI98
aI506
aI695
aI150
aI1484
aI451
aI1
aI80
aI224
aI185
aI170
aI327
aI199
aI498
aI336
aI90
aI165
aI384
aI186
aI154
aI204
aI674
aI188
aI206
aI422
aI521
aI519
aI426
aI371
aI288
aI295
aI965
aI79
aI306
aI938
aI416
aI87
aI393
aI484
aI102
aI198
aI400
aI223
aI456
aI188
aI15
aI79
aI470
aI106
aI1917
aI188
aI162
aI558
aI348
aI1274
aI175
aI222
aI177
aI846
aI222
aI206
aI300
aI396
aI83
aI408
aI173
aI193
aI203
aI185
aI1859
aI550
aI435
aI86
aI504
aI212
aI431
aI84
aI184
aI175
aI401
aI397
aI520
aI81
aI38
aI198
aI381
aI12
aI399
aI389
aI219
aI343
aI83
aI193
aI187
aI491
aI208
aI182
aI180
aI485
aI398
aI401
aI160
aI225
aI376
aI40
aI180
aI172
aI175
aI413
aI82
aI178
aI187
aI100
aI305
aI197
aI311
aI85
aI382
aI182
aI495
aI370
aI185
aI491
aI478
aI38
aI196
aI189
aI216
aI771
aI185
aI208
aI182
aI202
aI167
aI367
aI190
aI179
aI304
aI89
aI92
aI36
aI205
aI376
aI195
aI403
aI224
aI343
aI87
aI193
aI658
aI62
aI298
aI212
aI181
aI705
aI235
aI736
aI799
aI1597
aI433
aI290
aI625
aI498
aI434
aI194
aI206
aI197
aI665
aI80
aI98
aI178
aI386
aI79
aI196
aI140
aI359
aI670
aI290
aI196
aI171
aI1
aI456
aI210
aI342
aI374
aI529
aI39
aI172
aI532
aI308
aI215
aI354
aI37
aI421
aI313
aI536
aI37
aI202
aI743
aI547
aI203
aI226
aI217
aI405
aI212
aI743
aI193
aI178
aI206
aI365
aI322
aI183
aI408
aI1
aI334
aI203
aI511
aI75
aI183
aI85
aI217
aI44
aI82
aI639
aI83
aI746
aI177
aI204
aI175
aI517
aI211
aI366
aI340
aI34
aI201
aI444
aI85
aI159
aI208
aI91
aI322
aI531
aI183
aI401
aI387
aI76
aI467
aI441
aI177
aI167
aI181
aI311
aI403
aI210
aI207
aI204
aI191
aI333
aI94
aI139
aI93
aI782
aI14
aI194
aI367
aI407
aI345
aI188
aI434
aI354
aI399
aI99
aI202
aI284
aI213
aI178
aI37
aI180
aI464
aI84
aI88
aI165
aI80
aI207
aI43
aI193
aI190
aI80
aI186
aI302
aI378
aI165
aI403
aI458
aI842
aI484
aI174
aI185
aI171
aI2277
aI177
aI192
aI478
aI457
aI441
aI188
aI866
aI826
aI335
aI236
aI360
aI187
aI811
aI753
aI463
aI74
aI203
aI414
aI84
aI1092
aI175
aI437
aI753
aI499
aI294
aI224
aI96
aI208
aI573
aI363
aI207
aI330
aI296
aI203
aI743
aI396
aI182
aI1806
aI388
aI347
aI404
aI185
aI430
aI177
aI754
aI338
aI682
aI760
aI1231
aI512
aI399
aI531
aI391
aI209
aI202
aI279
aI86
aI85
aI679
aI360
aI313
aI202
aI864
aI214
aI178
aI401
aI74
aI511
aI83
aI474
aI163
aI220
aI366
aI713
aI203
aI843
aI178
aI162
aI44
aI189
aI100
aI88
aI408
aI2686
aI487
aI170
aI211
aI314
aI358
aI514
aI314
aI185
aI186
aI220
aI305
aI509
aI212
aI740
aI402
aI219
aI187
aI61
aI299
aI355
aI381
aI383
aI42
aI450
aI143
aI350
aI1043
aI351
aI902
aI438
aI1266
aI441
aI192
aI325
aI324
aI84
aI769
aI772
aI192
aI321
aI760
aI296
aI206
aI202
aI199
aI370
aI162
aI173
aI209
aI196
aI380
aI184
aI420
aI206
aI350
aI96
aI15
aI399
aI185
aI464
aI786
aI829
aI764
aI199
aI491
aI385
aI680
aI181
aI398
aI412
aI432
aI146
aI170
aI187
aI179
aI503
aI359
aI299
aI66
aI192
aI35
aI183
aI509
aI305
aI466
aI187
aI723
aI188
aI284
aI443
aI400
aI234
aI779
aI41
aI89
aI366
aI83
aI172
aI219
aI807
aI164
aI411
aI305
aI74
aI91
aI414
aI406
aI415
aI182
aI186
aI191
aI238
aI544
aI224
aa(lp15
I84
aI743
aI463
aI186
aI336
aI345
aI365
aI384
aI316
aI157
aI543
aI91
aI181
aI633
aI364
aI214
aI300
aI422
aI680
aI189
aI318
aI139
aI424
aI128
aI687
aI204
aI683
aI173
aI85
aI384
aI319
aI301
aI670
aI199
aI324
aI1413
aI323
aI194
aI1766
aI290
aI208
aI366
aI389
aI169
aI85
aI187
aI140
aI84
aI1712
aI347
aI186
aI391
aI89
aI184
aI741
aI411
aI156
aI168
aI82
aI685
aI766
aI402
aI188
aI365
aI37
aI457
aI80
aI166
aI184
aI447
aI208
aI95
aI407
aI170
aI208
aI187
aI210
aI361
aI177
aI363
aI91
aI37
aI329
aI87
aI340
aI754
aI39
aI522
aI183
aI182
aI160
aI416
aI411
aI196
aI485
aI84
aI1970
aI203
aI193
aI470
aI729
aI192
aI74
aI179
aI409
aI88
aI194
aI447
aI276
aI99
aI700
aI712
aI405
aI332
aI310
aI1913
aI208
aI752
aI303
aI695
aI180
aI93
aI338
aI192
aI148
aI390
aI189
aI183
aI662
aI449
aI86
aI933
aI736
aI154
aI445
aI93
aI84
aI15
aI190
aI108
aI204
aI184
aI204
aI696
aI173
aI193
aI86
aI86
aI753
aI729
aI165
aI178
aI193
aI430
aI36
aI194
aI414
aI198
aI157
aI583
aI186
aI408
aI184
aI169
aI204
aI75
aI1320
aI85
aI177
aI381
aI92
aI297
aI172
aI179
aI465
aI454
aI387
aI196
aI691
aI206
aI2
aI164
aI205
aI181
aI435
aI332
aI168
aI149
aI666
aI679
aI187
aI462
aI800
aI711
aI220
aI379
aI300
aI92
aI206
aI203
aI188
aI694
aI82
aI484
aI208
aI151
aI187
aI797
aI668
aI653
aI80
aI800
aI90
aI391
aI169
aI217
aI91
aI154
aI198
aI80
aI172
aI85
aI336
aI38
aI226
aI196
aI145
aI196
aI375
aI181
aI308
aI395
aI194
aI660
aI325
aI47
aI13
aI357
aI471
aI722
aI422
aI281
aI406
aI277
aI174
aI290
aI485
aI725
aI334
aI203
aI437
aI288
aI397
aI369
aI501
aI87
aI202
aI188
aI45
aI723
aI434
aI419
aI295
aI656
aI414
aI2
aI179
aI45
aI323
aI352
aI1948
aI442
aI172
aI208
aI195
aI380
aI802
aI175
aI174
aI629
aI361
aI706
aI191
aI87
aI882
aI299
aI73
aI443
aI329
aI168
aI769
aI350
aI171
aI731
aI743
aI505
aI331
aI174
aI149
aI388
aI384
aI185
aI184
aI91
aI204
aI93
aI194
aI376
aI416
aI95
aI176
aI197
aI479
aI523
aI152
aI191
aI284
aI165
aI826
aI176
aI368
aI355
aI92
aI387
aI170
aI171
aI208
aI154
aI1456
aI149
aI171
aI165
aI646
aI791
aI207
aI150
aI37
aI178
aI702
aI173
aI507
aI315
aI168
aI349
aI89
aI80
aI182
aI321
aI684
aI78
aI200
aI178
aI173
aI370
aI474
aI76
aI313
aI91
aI222
aI40
aI431
aI767
aI197
aI223
aI1753
aI682
aI65
aI179
aI141
aI180
aI94
aI400
aI226
aI672
aI196
aI35
aI490
aI174
aI15
aI409
aI172
aI470
aI153
aI193
aI11
aI204
aI162
aI400
aI707
aI212
aI2
aI320
aI188
aI178
aI725
aI195
aI39
aI149
aI744
aI152
aI170
aI726
aI366
aI754
aI91
aI293
aI199
aI208
aI394
aI883
aI171
aI189
aI180
aI202
aI195
aI928
aI164
aI182
aI189
aI1807
aI374
aI181
aI180
aI202
aI40
aI89
aI152
aI373
aI399
aI455
aI186
aI168
aI328
aI175
aI152
aI881
aI520
aI78
aI296
aI399
aI1833
aI293
aI147
aI218
aI863
aI372
aI196
aI167
aI199
aI733
aI708
aI175
aI400
aI64
aI14
aI412
aI391
aI87
aI209
aI336
aI207
aI342
aI200
aI173
aI709
aI330
aI198
aI662
aI77
aI236
aI89
aI548
aI406
aI327
aI407
aI185
aI695
aI164
aI81
aI80
aI347
aI171
aI148
aI228
aI190
aI710
aI320
aI439
aI203
aI1834
aI177
aI158
aI212
aI765
aI177
aI410
aI220
aI293
aI554
aI314
aI1422
aI328
aI195
aI671
aI542
aI315
aI405
aI180
aI81
aI323
aI173
aI310
aI301
aI214
aI375
aI88
aI210
aI202
aI358
aI187
aI316
aI168
aI320
aI438
aI171
aI739
aI920
aI354
aI235
aI173
aI407
aI211
aI1383
aI820
aI418
aI429
aI396
aI145
aI82
aI282
aI195
aI171
aI667
aI12
aI483
aI355
aI751
aI186
aI184
aI185
aI393
aI735
aI14
aI331
aI219
aI79
aI184
aI366
aI180
aI465
aI389
aI382
aI174
aI301
aI166
aI192
aI164
aI764
aI148
aI364
aI631
aI386
aI192
aI407
aI943
aI871
aI101
aI325
aI77
aI15
aI435
aI326
aI177
aI174
aI424
aI79
aI417
aI387
aI399
aI634
aI191
aI192
aI88
aI96
aI1778
aI455
aI306
aI170
aI180
aI322
aI363
aI82
aI1779
aI1477
aI405
aI392
aI536
aI435
aI70
aI260
aI375
aI205
aI80
aI98
aI190
aI205
aI464
aI816
aI482
aI328
aI95
aI33
aI378
aI89
aI305
aI414
aI211
aI403
aI204
aI14
aI323
aI213
aI315
aI799
aI180
aI188
aI348
aI179
aI196
aI213
aI417
aI184
aI457
aI183
aI82
aI1845
aI316
aI381
aI369
aI14
aI298
aI176
aI41
aI81
aI426
aI339
aI187
aI337
aI189
aI381
aI275
aI193
aI382
aI421
aI370
aI1607
aI183
aI203
aI324
aI738
aI191
aI181
aI166
aI174
aI512
aI211
aI15
aI85
aI184
aI180
aI193
aI314
aI189
aI176
aI188
aI185
aI526
aI410
aI729
aI180
aI353
aI426
aI167
aI351
aI290
aI185
aI382
aI1779
aI407
aI400
aI370
aI282
aI153
aI297
aI307
aI194
aI181
aI202
aI707
aI170
aI41
aI840
aI206
aI179
aI158
aI331
aI167
aI84
aI473
aI81
aI379
aI393
aI363
aI189
aI1762
aI208
aI920
aI377
aI409
aI441
aI128
aI447
aI211
aI172
aI209
aI88
aI736
aI190
aI343
aI200
aI90
aI92
aI206
aI181
aI404
aI45
aI205
aI180
aI398
aI170
aI190
aI1029
aI152
aI174
aI169
aI442
aI80
aI171
aI173
aI89
aI193
aI176
aI189
aI521
aI162
aI331
aI493
aI482
aI317
aI94
aI374
aI526
aI376
aI152
aI183
aI490
aI172
aI722
aI180
aI37
aI187
aI176
aI725
aI216
aI411
aI305
aI660
aI611
aI297
aI239
aI15
aI292
aI264
aI735
aI398
aI729
aI383
aI92
aI15
aI1751
aI183
aI169
aI368
aI194
aI397
aI203
aI509
aI209
aI341
aI311
aI795
aI166
aI420
aI353
aI222
aI216
aI211
aI175
aI322
aI194
aI393
aI178
aI743
aI1715
aI180
aI274
aI207
aI365
aI191
aI349
aI487
aI839
aI376
aI89
aI680
aI94
aI196
aI761
aI984
aI294
aI326
aI2610
aI183
aI505
aI40
aI404
aI413
aI200
aI449
aI147
aI218
aI278
aI332
aI124
aI5410
aI686
aI356
aI408
aI400
aI78
aI208
aI286
aI169
aI722
aI193
aI394
aI183
aI476
aI193
aI285
aI83
aI213
aI512
aI181
aI722
aI164
aI714
aI191
aI1397
aI164
aI673
aI201
aI170
aI365
aI207
aI394
aI359
aI81
aI321
aI445
aI178
aI170
aI183
aI431
aI376
aI187
aI204
aI85
aI382
aI172
aI381
aI366
aI195
aI92
aI183
aI92
aI87
aI85
aI425
aI235
aI180
aI777
aI303
aI186
aI90
aI380
aI447
aI425
aI368
aI188
aI335
aI212
aI331
aI471
aI202
aI429
aI454
aI741
aI197
aI152
aI189
aI939
aI824
aI630
aI16
aI33
aI233
aI671
aI315
aI219
aI209
aI89
aI182
aI336
aI297
aI189
aI471
aI364
aI212
aI165
aI82
aI174
aI197
aI174
aI458
aI215
aI45
aI78
aI209
aI144
aI429
aI410
aI176
aI80
aI86
aI689
aI19
aI179
aI76
aI770
aI805
aI84
aI179
aI191
aI396
aI84
aI139
aI217
aI439
aI405
aI347
aI196
aI530
aI38
aI324
aI310
aI143
aI426
aI662
aI671
aI183
aI788
aI298
aI754
aI208
aI785
aI381
aI195
aI468
aI181
aa(lp16
I190
aI177
aI384
aI109
aI374
aI83
aI180
aI392
aI360
aI1615
aI379
aI286
aI343
aI173
aI101
aI176
aI303
aI206
aI184
aI173
aI309
aI675
aI381
aI306
aI95
aI387
aI369
aI83
aI728
aI160
aI157
aI768
aI689
aI1733
aI360
aI348
aI442
aI760
aI180
aI172
aI308
aI282
aI389
aI200
aI170
aI493
aI300
aI188
aI409
aI87
aI375
aI189
aI356
aI169
aI463
aI180
aI210
aI482
aI851
aI433
aI81
aI329
aI39
aI364
aI169
aI415
aI162
aI684
aI164
aI408
aI378
aI200
aI206
aI159
aI382
aI1207
aI178
aI205
aI189
aI711
aI348
aI161
aI697
aI202
aI348
aI684
aI378
aI331
aI435
aI174
aI384
aI157
aI70
aI389
aI134
aI184
aI264
aI82
aI230
aI1642
aI182
aI88
aI215
aI88
aI804
aI37
aI438
aI283
aI199
aI337
aI372
aI379
aI186
aI302
aI208
aI1133
aI378
aI197
aI156
aI369
aI287
aI160
aI468
aI395
aI168
aI171
aI214
aI177
aI371
aI387
aI77
aI391
aI300
aI206
aI306
aI1636
aI301
aI95
aI185
aI175
aI173
aI392
aI295
aI327
aI322
aI175
aI200
aI168
aI194
aI232
aI338
aI308
aI311
aI388
aI408
aI460
aI191
aI365
aI177
aI174
aI75
aI95
aI296
aI333
aI689
aI17
aI317
aI64
aI36
aI344
aI167
aI212
aI348
aI270
aI35
aI393
aI778
aI383
aI385
aI287
aI217
aI1175
aI184
aI83
aI174
aI75
aI400
aI564
aI722
aI684
aI354
aI284
aI381
aI215
aI1915
aI198
aI39
aI451
aI43
aI168
aI147
aI174
aI272
aI448
aI658
aI384
aI185
aI364
aI753
aI833
aI292
aI177
aI15
aI97
aI846
aI184
aI889
aI504
aI188
aI191
aI401
aI423
aI182
aI93
aI837
aI410
aI289
aI86
aI138
aI171
aI772
aI180
aI310
aI424
aI281
aI1649
aI183
aI87
aI190
aI195
aI184
aI298
aI191
aI419
aI168
aI791
aI776
aI834
aI331
aI451
aI437
aI88
aI192
aI382
aI188
aI287
aI485
aI678
aI168
aI621
aI345
aI189
aI86
aI196
aI725
aI154
aI100
aI173
aI159
aI319
aI368
aI677
aI360
aI194
aI148
aI90
aI351
aI211
aI207
aI169
aI79
aI198
aI85
aI178
aI185
aI355
aI201
aI182
aI13
aI185
aI516
aI406
aI210
aI158
aI220
aI84
aI461
aI3485
aI335
aI183
aI208
aI179
aI241
aI832
aI375
aI226
aI303
aI78
aI688
aI90
aI615
aI77
aI166
aI179
aI298
aI178
aI326
aI35
aI1689
aI144
aI376
aI152
aI190
aI197
aI367
aI313
aI65
aI75
aI172
aI355
aI450
aI690
aI305
aI218
aI187
aI287
aI176
aI353
aI179
aI321
aI413
aI0
aI16
aI183
aI347
aI166
aI425
aI563
aI193
aI2685
aI185
aI148
aI190
aI328
aI164
aI168
aI308
aI668
aI728
aI439
aI170
aI206
aI363
aI385
aI461
aI166
aI159
aI92
aI733
aI86
aI367
aI185
aI154
aI296
aI665
aI77
aI488
aI180
aI305
aI401
aI182
aI614
aI178
aI366
aI1276
aI33
aI168
aI166
aI180
aI198
aI143
aI683
aI299
aI1080
aI371
aI200
aI196
aI190
aI194
aI186
aI407
aI296
aI78
aI315
aI94
aI141
aI291
aI686
aI692
aI381
aI41
aI135
aI182
aI169
aI768
aI218
aI225
aI299
aI672
aI1115
aI212
aI359
aI393
aI182
aI570
aI366
aI203
aI169
aI1938
aI372
aI341
aI694
aI353
aI183
aI367
aI159
aI195
aI304
aI217
aI95
aI385
aI350
aI204
aI648
aI764
aI83
aI308
aI81
aI382
aI362
aI185
aI83
aI275
aI430
aI374
aI782
aI238
aI169
aI198
aI1568
aI299
aI360
aI162
aI465
aI292
aI69
aI148
aI160
aI193
aI383
aI1045
aI291
aI322
aI78
aI194
aI167
aI134
aI289
aI216
aI365
aI205
aI455
aI183
aI671
aI14
aI212
aI842
aI176
aI439
aI414
aI189
aI195
aI172
aI171
aI86
aI399
aI411
aI325
aI71
aI170
aI353
aI165
aI495
aI191
aI290
aI414
aI207
aI825
aI761
aI181
aI420
aI300
aI81
aI778
aI177
aI76
aI152
aI363
aI386
aI199
aI91
aI83
aI130
aI317
aI727
aI298
aI438
aI342
aI398
aI135
aI312
aI164
aI200
aI218
aI411
aI304
aI171
aI171
aI191
aI161
aI94
aI379
aI88
aI434
aI142
aI194
aI167
aI158
aI293
aI38
aI182
aI197
aI188
aI447
aI369
aI1078
aI195
aI84
aI413
aI514
aI93
aI168
aI196
aI343
aI256
aI221
aI147
aI207
aI175
aI186
aI95
aI1303
aI147
aI205
aI288
aI424
aI199
aI88
aI85
aI371
aI179
aI77
aI474
aI295
aI164
aI482
aI207
aI1751
aI147
aI77
aI15
aI192
aI178
aI656
aI727
aI197
aI385
aI184
aI191
aI205
aI291
aI185
aI669
aI190
aI350
aI295
aI288
aI314
aI177
aI91
aI16
aI201
aI358
aI325
aI706
aI82
aI217
aI166
aI81
aI34
aI186
aI210
aI141
aI182
aI205
aI427
aI36
aI763
aI179
aI134
aI167
aI180
aI88
aI299
aI446
aI301
aI697
aI371
aI422
aI87
aI290
aI517
aI165
aI80
aI175
aI427
aI101
aI793
aI189
aI588
aI105
aI85
aI168
aI289
aI182
aI661
aI184
aI190
aI358
aI192
aI205
aI411
aI383
aI396
aI735
aI134
aI85
aI80
aI194
aI43
aI82
aI370
aI207
aI371
aI87
aI79
aI389
aI195
aI94
aI77
aI722
aI307
aI88
aI332
aI155
aI157
aI723
aI84
aI271
aI1769
aI172
aI175
aI680
aI411
aI522
aI363
aI198
aI84
aI79
aI168
aI168
aI410
aI297
aI509
aI769
aI82
aI177
aI353
aI163
aI345
aI734
aI520
aI323
aI171
aI198
aI301
aI370
aI169
aI40
aI178
aI353
aI213
aI521
aI188
aI182
aI305
aI376
aI832
aI668
aI156
aI171
aI181
aI200
aI473
aI162
aI76
aI85
aI136
aI308
aI200
aI676
aI708
aI446
aI330
aI85
aI205
aI589
aI154
aI173
aI171
aI180
aI400
aI217
aI157
aI373
aI182
aI200
aI773
aI183
aI191
aI300
aI335
aI280
aI171
aI97
aI190
aI431
aI195
aI178
aI389
aI189
aI174
aI146
aI609
aI162
aI479
aI214
aI40
aI283
aI318
aI31
aI81
aI377
aI160
aI335
aI15
aI175
aI482
aI580
aI300
aI680
aI438
aI474
aI185
aI82
aI452
aI137
aI192
aI195
aI759
aI305
aI187
aI456
aI502
aI317
aI35
aI357
aI342
aI359
aI176
aI279
aI336
aI198
aI279
aI380
aI408
aI140
aI164
aI385
aI814
aI178
aI303
aI668
aI525
aI197
aI178
aI212
aI678
aI93
aI186
aI636
aI199
aI600
aI402
aI192
aI356
aI438
aI320
aI63
aI402
aI81
aI193
aI80
aI383
aI167
aI167
aI370
aI397
aI192
aI410
aI277
aI391
aI665
aI458
aI184
aI185
aI185
aI324
aI165
aI82
aI209
aI719
aI92
aI182
aI191
aI173
aI422
aI146
aI84
aI206
aI461
aI673
aI190
aI167
aI83
aI83
aI42
aI182
aI195
aI424
aI179
aI168
aI289
aI146
aI183
aI370
aI685
aI191
aI185
aI429
aI301
aI208
aI189
aI223
aI136
aI211
aI196
aI206
aI716
aI372
aI449
aI176
aI82
aI92
aI186
aI299
aI89
aI145
aI485
aI1647
aI417
aI297
aI193
aI684
aI84
aI196
aI955
aI382
aI152
aI623
aI401
aI905
aI746
aI73
aI186
aI456
aI1697
aI171
aI435
aI152
aI292
aI364
aI182
aI402
aI1717
aI181
aI608
aI435
aI406
aI437
aI681
aI294
aI182
aI169
aI488
aI781
aI386
aI335
aI209
aI190
aI176
aI200
aI556
aI838
aI220
aI392
aI172
aI174
aI171
aI406
aI160
aI387
aI196
aI404
aI41
aI68
aI318
aI226
aI184
aI86
aI707
aI177
aI179
aI485
aI388
aI325
aI193
aI638
aI392
aI193
aI176
aI287
aI685
aI172
aI222
aI212
aI174
aI202
aI418
aI738
aI41
aI473
aI210
aI173
aI1
aI285
aI186
aI345
aI158
aI209
aa(lp17
I345
aI369
aI88
aI407
aI169
aI290
aI162
aI164
aI751
aI266
aI187
aI141
aI188
aI180
aI452
aI35
aI403
aI451
aI171
aI348
aI72
aI199
aI172
aI263
aI436
aI170
aI279
aI159
aI170
aI93
aI15
aI352
aI170
aI88
aI175
aI370
aI1293
aI173
aI446
aI313
aI187
aI171
aI313
aI182
aI165
aI79
aI166
aI188
aI184
aI278
aI341
aI741
aI83
aI333
aI164
aI376
aI212
aI632
aI388
aI170
aI85
aI467
aI153
aI165
aI41
aI35
aI177
aI420
aI211
aI42
aI279
aI271
aI181
aI344
aI652
aI309
aI475
aI306
aI298
aI89
aI308
aI599
aI202
aI465
aI159
aI304
aI683
aI398
aI435
aI13
aI658
aI447
aI1272
aI167
aI384
aI737
aI200
aI307
aI686
aI167
aI165
aI82
aI352
aI84
aI291
aI62
aI193
aI163
aI1351
aI288
aI588
aI297
aI767
aI294
aI184
aI161
aI147
aI348
aI657
aI350
aI124
aI173
aI78
aI35
aI215
aI74
aI474
aI359
aI421
aI387
aI317
aI206
aI1526
aI204
aI87
aI173
aI167
aI196
aI202
aI301
aI821
aI287
aI652
aI89
aI170
aI169
aI157
aI209
aI689
aI397
aI177
aI452
aI493
aI282
aI725
aI156
aI177
aI191
aI178
aI186
aI173
aI268
aI182
aI172
aI331
aI688
aI296
aI176
aI82
aI184
aI98
aI296
aI355
aI178
aI154
aI37
aI373
aI178
aI192
aI286
aI172
aI491
aI271
aI156
aI382
aI381
aI37
aI297
aI333
aI86
aI355
aI76
aI649
aI427
aI679
aI175
aI219
aI684
aI294
aI160
aI342
aI321
aI68
aI259
aI612
aI3588
aI355
aI179
aI371
aI440
aI167
aI208
aI288
aI316
aI187
aI334
aI385
aI168
aI171
aI172
aI462
aI426
aI156
aI1622
aI86
aI292
aI381
aI383
aI376
aI166
aI282
aI753
aI595
aI165
aI68
aI82
aI296
aI814
aI184
aI181
aI167
aI1929
aI95
aI157
aI392
aI410
aI278
aI394
aI368
aI364
aI167
aI410
aI336
aI351
aI370
aI652
aI431
aI76
aI187
aI179
aI199
aI200
aI74
aI813
aI93
aI213
aI372
aI348
aI364
aI356
aI405
aI176
aI339
aI43
aI155
aI741
aI659
aI176
aI650
aI189
aI401
aI181
aI172
aI489
aI151
aI376
aI1146
aI184
aI663
aI227
aI161
aI428
aI283
aI198
aI354
aI78
aI337
aI170
aI629
aI80
aI97
aI342
aI382
aI97
aI168
aI425
aI90
aI297
aI42
aI437
aI172
aI188
aI187
aI410
aI310
aI389
aI743
aI697
aI398
aI447
aI1629
aI150
aI450
aI178
aI629
aI443
aI361
aI186
aI187
aI376
aI40
aI300
aI608
aI183
aI265
aI265
aI174
aI1011
aI165
aI1543
aI364
aI311
aI341
aI35
aI336
aI173
aI294
aI350
aI194
aI205
aI212
aI169
aI94
aI444
aI14
aI37
aI184
aI85
aI669
aI366
aI372
aI162
aI172
aI182
aI174
aI99
aI388
aI628
aI353
aI86
aI189
aI346
aI38
aI324
aI378
aI86
aI183
aI441
aI378
aI467
aI217
aI313
aI309
aI34
aI86
aI290
aI77
aI166
aI283
aI172
aI323
aI304
aI765
aI171
aI126
aI99
aI160
aI187
aI436
aI490
aI360
aI406
aI184
aI168
aI289
aI190
aI165
aI330
aI178
aI167
aI1530
aI204
aI724
aI160
aI170
aI161
aI147
aI282
aI185
aI352
aI284
aI163
aI76
aI339
aI391
aI135
aI153
aI66
aI77
aI370
aI499
aI345
aI74
aI42
aI159
aI433
aI385
aI185
aI181
aI94
aI195
aI738
aI665
aI458
aI80
aI327
aI323
aI37
aI424
aI158
aI363
aI319
aI39
aI182
aI195
aI184
aI199
aI366
aI290
aI157
aI83
aI176
aI189
aI195
aI312
aI397
aI202
aI294
aI188
aI411
aI620
aI175
aI497
aI12
aI347
aI43
aI218
aI188
aI175
aI299
aI176
aI150
aI158
aI198
aI2
aI382
aI178
aI733
aI215
aI173
aI45
aI428
aI95
aI124
aI197
aI883
aI928
aI174
aI167
aI412
aI688
aI394
aI178
aI15
aI167
aI148
aI180
aI446
aI305
aI206
aI373
aI187
aI180
aI187
aI194
aI697
aI457
aI223
aI196
aI362
aI42
aI671
aI430
aI166
aI369
aI341
aI220
aI81
aI444
aI184
aI273
aI176
aI88
aI339
aI414
aI177
aI427
aI92
aI635
aI307
aI353
aI192
aI372
aI93
aI144
aI657
aI328
aI495
aI176
aI978
aI185
aI187
aI184
aI392
aI280
aI86
aI477
aI335
aI274
aI410
aI189
aI377
aI805
aI88
aI170
aI148
aI270
aI215
aI364
aI189
aI328
aI81
aI367
aI162
aI202
aI728
aI424
aI681
aI1334
aI567
aI402
aI355
aI805
aI174
aI191
aI543
aI170
aI86
aI152
aI135
aI1052
aI172
aI323
aI163
aI353
aI310
aI466
aI98
aI484
aI319
aI202
aI152
aI170
aI356
aI672
aI415
aI157
aI41
aI291
aI199
aI186
aI711
aI74
aI333
aI708
aI366
aI345
aI168
aI193
aI286
aI160
aI154
aI198
aI300
aI365
aI185
aI165
aI681
aI179
aI193
aI180
aI700
aI421
aI161
aI79
aI71
aI347
aI79
aI4
aI174
aI198
aI309
aI162
aI14
aI88
aI455
aI182
aI363
aI514
aI192
aI401
aI843
aI326
aI184
aI363
aI155
aI274
aI254
aI132
aI320
aI281
aI163
aI343
aI85
aI183
aI409
aI189
aI415
aI186
aI371
aI282
aI670
aI208
aI702
aI407
aI748
aI220
aI195
aI41
aI326
aI329
aI372
aI164
aI321
aI87
aI345
aI364
aI127
aI128
aI33
aI158
aI155
aI722
aI168
aI171
aI345
aI479
aI694
aI373
aI161
aI270
aI593
aI361
aI259
aI89
aI157
aI378
aI769
aI82
aI182
aI176
aI411
aI179
aI129
aI80
aI146
aI42
aI163
aI462
aI196
aI189
aI176
aI350
aI90
aI83
aI174
aI199
aI300
aI366
aI411
aI427
aI158
aI162
aI344
aI184
aI75
aI373
aI428
aI677
aI39
aI192
aI163
aI401
aI184
aI383
aI359
aI387
aI372
aI222
aI177
aI438
aI178
aI287
aI174
aI273
aI611
aI475
aI323
aI168
aI674
aI171
aI674
aI654
aI639
aI377
aI40
aI85
aI299
aI306
aI206
aI360
aI373
aI183
aI365
aI173
aI747
aI92
aI476
aI304
aI349
aI360
aI83
aI182
aI142
aI298
aI387
aI300
aI87
aI40
aI195
aI352
aI863
aI78
aI372
aI419
aI171
aI191
aI395
aI174
aI89
aI168
aI199
aI2
aI308
aI488
aI135
aI359
aI37
aI158
aI659
aI376
aI376
aI175
aI88
aI154
aI196
aI167
aI362
aI154
aI37
aI190
aI172
aI700
aI210
aI2
aI175
aI450
aI79
aI87
aI300
aI401
aI173
aI166
aI218
aI291
aI321
aI167
aI85
aI656
aI265
aI122
aI417
aI193
aI271
aI37
aI203
aI681
aI343
aI164
aI201
aI191
aI43
aI79
aI203
aI384
aI184
aI188
aI737
aI341
aI81
aI143
aI330
aI84
aI468
aI160
aI384
aI197
aI149
aI629
aI376
aI183
aI198
aI179
aI340
aI677
aI185
aI164
aI1069
aI216
aI1086
aI396
aI311
aI296
aI81
aI354
aI94
aI396
aI777
aI188
aI663
aI316
aI130
aI166
aI179
aI85
aI190
aI317
aI315
aI869
aI366
aI37
aI167
aI78
aI169
aI154
aI323
aI173
aI361
aI99
aI168
aI195
aI328
aI87
aI1092
aI267
aI704
aI274
aI69
aI80
aI81
aI359
aI167
aI862
aI88
aI312
aI289
aI344
aI181
aI331
aI436
aI192
aI421
aI345
aI389
aI41
aI190
aI757
aI163
aI200
aI293
aI141
aI287
aI375
aI219
aI368
aI78
aI162
aI181
aI428
aI158
aI192
aI158
aI663
aI184
aI375
aI634
aI76
aI433
aI298
aI91
aI673
aI159
aI178
aI149
aI194
aI162
aI169
aI650
aI369
aI746
aI400
aI159
aI167
aI181
aI193
aI161
aI314
aI330
aI297
aI16
aI397
aI374
aI370
aI192
aI135
aI502
aI79
aI172
aI181
aI788
aI174
aI564
aI41
aI67
aI86
aI638
aI191
aI526
aI902
aI180
aa(lp18
I903
aI391
aI1093
aI194
aI701
aI173
aI72
aI196
aI363
aI160
aI694
aI447
aI338
aI368
aI691
aI644
aI199
aI73
aI286
aI429
aI573
aI201
aI164
aI417
aI336
aI415
aI192
aI89
aI83
aI932
aI154
aI2306
aI474
aI445
aI92
aI151
aI338
aI392
aI170
aI94
aI164
aI804
aI424
aI200
aI672
aI424
aI84
aI359
aI194
aI376
aI83
aI366
aI92
aI274
aI162
aI34
aI488
aI791
aI33
aI292
aI793
aI975
aI290
aI206
aI42
aI433
aI85
aI297
aI355
aI366
aI337
aI183
aI467
aI192
aI585
aI185
aI343
aI698
aI379
aI283
aI15
aI185
aI2297
aI182
aI1156
aI652
aI666
aI294
aI366
aI426
aI203
aI654
aI165
aI154
aI37
aI175
aI75
aI192
aI174
aI169
aI462
aI157
aI822
aI93
aI4426
aI1147
aI354
aI16
aI308
aI184
aI170
aI205
aI186
aI84
aI80
aI373
aI360
aI276
aI308
aI214
aI406
aI406
aI168
aI171
aI153
aI286
aI172
aI641
aI280
aI1029
aI306
aI71
aI198
aI211
aI186
aI81
aI41
aI292
aI153
aI663
aI167
aI80
aI349
aI92
aI316
aI420
aI178
aI86
aI189
aI303
aI315
aI175
aI158
aI145
aI265
aI469
aI682
aI199
aI203
aI281
aI190
aI326
aI98
aI273
aI97
aI295
aI164
aI77
aI308
aI162
aI336
aI807
aI360
aI377
aI377
aI352
aI79
aI72
aI182
aI302
aI333
aI79
aI166
aI190
aI357
aI394
aI633
aI176
aI214
aI171
aI180
aI184
aI14
aI663
aI381
aI451
aI167
aI317
aI189
aI136
aI618
aI176
aI364
aI345
aI277
aI418
aI175
aI394
aI155
aI166
aI87
aI642
aI165
aI318
aI191
aI298
aI170
aI338
aI452
aI180
aI186
aI643
aI403
aI72
aI179
aI94
aI1098
aI189
aI727
aI402
aI159
aI194
aI666
aI36
aI299
aI185
aI155
aI158
aI72
aI72
aI380
aI370
aI163
aI152
aI167
aI171
aI476
aI194
aI189
aI220
aI404
aI176
aI174
aI293
aI183
aI257
aI724
aI38
aI284
aI97
aI169
aI421
aI95
aI732
aI83
aI90
aI382
aI178
aI306
aI622
aI906
aI357
aI325
aI188
aI168
aI379
aI170
aI82
aI389
aI383
aI165
aI619
aI339
aI90
aI212
aI211
aI1
aI191
aI92
aI460
aI446
aI421
aI189
aI258
aI79
aI209
aI173
aI204
aI333
aI215
aI195
aI255
aI78
aI379
aI86
aI204
aI162
aI1456
aI91
aI170
aI474
aI183
aI199
aI292
aI419
aI201
aI39
aI168
aI94
aI75
aI421
aI194
aI211
aI290
aI376
aI148
aI186
aI374
aI352
aI361
aI2
aI175
aI407
aI183
aI85
aI85
aI80
aI396
aI479
aI169
aI291
aI595
aI195
aI14
aI301
aI168
aI607
aI156
aI12
aI160
aI688
aI423
aI157
aI149
aI644
aI387
aI283
aI320
aI337
aI85
aI159
aI356
aI189
aI296
aI142
aI283
aI240
aI80
aI374
aI164
aI170
aI301
aI322
aI593
aI175
aI158
aI83
aI190
aI87
aI140
aI1634
aI669
aI344
aI168
aI168
aI83
aI363
aI72
aI277
aI31
aI90
aI94
aI616
aI185
aI166
aI87
aI146
aI593
aI202
aI264
aI183
aI732
aI178
aI298
aI792
aI79
aI84
aI179
aI162
aI353
aI85
aI335
aI320
aI366
aI178
aI196
aI179
aI38
aI294
aI1597
aI180
aI274
aI387
aI164
aI166
aI68
aI693
aI180
aI80
aI171
aI150
aI350
aI190
aI162
aI175
aI131
aI542
aI76
aI160
aI303
aI126
aI174
aI632
aI169
aI162
aI172
aI4
aI419
aI179
aI161
aI163
aI166
aI175
aI150
aI15
aI174
aI389
aI332
aI419
aI81
aI352
aI644
aI162
aI598
aI425
aI295
aI81
aI397
aI176
aI461
aI192
aI438
aI220
aI344
aI163
aI342
aI14
aI185
aI384
aI648
aI189
aI44
aI189
aI37
aI361
aI410
aI205
aI190
aI616
aI173
aI160
aI148
aI346
aI285
aI178
aI316
aI168
aI350
aI304
aI36
aI175
aI178
aI177
aI183
aI35
aI367
aI14
aI61
aI183
aI169
aI335
aI203
aI378
aI354
aI557
aI306
aI363
aI587
aI69
aI287
aI392
aI260
aI200
aI337
aI89
aI186
aI437
aI279
aI89
aI176
aI687
aI182
aI2
aI179
aI681
aI165
aI180
aI171
aI425
aI746
aI84
aI421
aI420
aI296
aI650
aI72
aI579
aI14
aI189
aI276
aI597
aI257
aI185
aI95
aI276
aI189
aI417
aI601
aI488
aI174
aI88
aI38
aI351
aI152
aI191
aI36
aI485
aI707
aI371
aI347
aI101
aI181
aI311
aI221
aI206
aI150
aI220
aI43
aI638
aI177
aI683
aI484
aI167
aI181
aI207
aI383
aI42
aI148
aI187
aI627
aI156
aI379
aI462
aI363
aI91
aI1558
aI143
aI191
aI168
aI287
aI179
aI256
aI86
aI308
aI91
aI90
aI201
aI477
aI82
aI77
aI35
aI1624
aI180
aI188
aI163
aI423
aI152
aI322
aI169
aI367
aI175
aI364
aI400
aI301
aI265
aI602
aI175
aI32
aI364
aI335
aI174
aI91
aI354
aI185
aI580
aI338
aI41
aI281
aI80
aI824
aI87
aI16
aI640
aI631
aI413
aI301
aI158
aI159
aI176
aI81
aI311
aI367
aI199
aI347
aI326
aI15
aI179
aI176
aI162
aI285
aI175
aI380
aI407
aI39
aI1088
aI371
aI195
aI284
aI406
aI398
aI192
aI181
aI173
aI307
aI324
aI434
aI303
aI179
aI342
aI209
aI176
aI399
aI185
aI215
aI173
aI190
aI171
aI1634
aI638
aI355
aI458
aI370
aI214
aI170
aI706
aI357
aI79
aI360
aI265
aI275
aI405
aI274
aI261
aI154
aI169
aI451
aI312
aI370
aI274
aI69
aI670
aI356
aI266
aI187
aI348
aI94
aI309
aI165
aI276
aI182
aI692
aI77
aI160
aI36
aI169
aI33
aI340
aI413
aI374
aI313
aI208
aI295
aI203
aI161
aI145
aI184
aI535
aI374
aI325
aI295
aI291
aI388
aI91
aI204
aI352
aI176
aI179
aI343
aI197
aI179
aI155
aI365
aI1037
aI174
aI157
aI368
aI198
aI178
aI164
aI89
aI379
aI282
aI344
aI186
aI169
aI296
aI323
aI494
aI335
aI395
aI325
aI161
aI365
aI417
aI171
aI713
aI17
aI78
aI100
aI337
aI287
aI599
aI200
aI342
aI341
aI88
aI162
aI350
aI180
aI1703
aI2
aI452
aI713
aI351
aI153
aI168
aI153
aI317
aI168
aI295
aI226
aI206
aI398
aI190
aI330
aI765
aI172
aI68
aI365
aI172
aI86
aI167
aI438
aI688
aI368
aI211
aI186
aI298
aI85
aI274
aI615
aI90
aI172
aI306
aI321
aI169
aI182
aI160
aI658
aI80
aI379
aI172
aI559
aI165
aI85
aI189
aI231
aI423
aI161
aI163
aI439
aI34
aI143
aI190
aI174
aI182
aI323
aI171
aI338
aI264
aI59
aI168
aI736
aI80
aI174
aI86
aI188
aI181
aI541
aI329
aI287
aI372
aI365
aI127
aI183
aI408
aI172
aI185
aI304
aI182
aI165
aI211
aI291
aI80
aI86
aI416
aI156
aI171
aI639
aI200
aI301
aI91
aI370
aI427
aI424
aI183
aI354
aI449
aI363
aI661
aI185
aI367
aI174
aI235
aI172
aI424
aI292
aI44
aI356
aI13
aI285
aI166
aI644
aI384
aI667
aI193
aI760
aI89
aI163
aI191
aI397
aI175
aI15
aI176
aI176
aI314
aI439
aI77
aI420
aI354
aI164
aI192
aI361
aI379
aI635
aI89
aI355
aI276
aI157
aI287
aI682
aI362
aI760
aI172
aI627
aI380
aI138
aI0
aI482
aI174
aI179
aI190
aI187
aI426
aI347
aI269
aI79
aI758
aI627
aI455
aI399
aI456
aI193
aI314
aI632
aI39
aI180
aI163
aI196
aI1473
aI36
aI344
aI175
aI39
aI173
aI383
aI163
aI186
aI36
aI678
aI84
aI180
aI648
aI321
aI163
aI355
aI187
aI187
aI141
aI765
aI337
aI161
aI293
aI296
aI13
aI202
aI169
aI581
aI42
aI176
aI75
aI491
aI175
aI455
aI153
aI188
aI326
aI175
aI205
aI346
aa(lp19
I340
aI179
aI1938
aI13
aI166
aI37
aI87
aI326
aI179
aI284
aI360
aI356
aI306
aI175
aI188
aI174
aI35
aI743
aI275
aI329
aI388
aI341
aI93
aI617
aI154
aI152
aI173
aI413
aI91
aI306
aI283
aI385
aI167
aI417
aI188
aI187
aI166
aI176
aI91
aI320
aI731
aI218
aI354
aI217
aI407
aI409
aI393
aI167
aI374
aI472
aI255
aI689
aI341
aI161
aI39
aI273
aI348
aI364
aI293
aI350
aI76
aI179
aI128
aI177
aI187
aI414
aI275
aI364
aI366
aI180
aI291
aI590
aI195
aI290
aI148
aI141
aI409
aI83
aI326
aI813
aI368
aI170
aI192
aI355
aI205
aI400
aI443
aI331
aI177
aI69
aI162
aI703
aI199
aI170
aI382
aI634
aI356
aI180
aI379
aI157
aI384
aI69
aI157
aI358
aI361
aI1498
aI80
aI511
aI159
aI399
aI86
aI651
aI630
aI606
aI169
aI337
aI349
aI187
aI377
aI182
aI170
aI155
aI333
aI723
aI337
aI297
aI292
aI715
aI166
aI40
aI160
aI316
aI193
aI663
aI121
aI347
aI150
aI158
aI92
aI288
aI1461
aI174
aI359
aI182
aI207
aI91
aI187
aI171
aI360
aI187
aI419
aI154
aI170
aI634
aI175
aI123
aI170
aI171
aI208
aI320
aI351
aI305
aI174
aI635
aI188
aI88
aI167
aI368
aI191
aI175
aI124
aI185
aI194
aI277
aI83
aI382
aI387
aI298
aI331
aI281
aI86
aI195
aI139
aI166
aI332
aI261
aI93
aI318
aI361
aI362
aI307
aI197
aI197
aI262
aI119
aI82
aI43
aI312
aI162
aI272
aI141
aI90
aI311
aI357
aI606
aI90
aI333
aI44
aI262
aI85
aI1450
aI80
aI355
aI168
aI182
aI165
aI82
aI308
aI194
aI173
aI261
aI153
aI186
aI166
aI41
aI87
aI175
aI173
aI1474
aI374
aI348
aI166
aI358
aI89
aI166
aI167
aI734
aI734
aI391
aI188
aI157
aI175
aI167
aI189
aI178
aI157
aI87
aI357
aI148
aI195
aI138
aI175
aI171
aI195
aI167
aI335
aI35
aI264
aI287
aI268
aI183
aI199
aI362
aI730
aI543
aI437
aI425
aI163
aI309
aI383
aI176
aI172
aI39
aI359
aI313
aI626
aI77
aI70
aI160
aI388
aI584
aI169
aI197
aI39
aI343
aI179
aI192
aI171
aI330
aI136
aI602
aI165
aI77
aI281
aI1435
aI158
aI189
aI102
aI171
aI418
aI15
aI171
aI350
aI87
aI369
aI193
aI204
aI79
aI435
aI185
aI202
aI175
aI332
aI283
aI339
aI151
aI284
aI393
aI455
aI207
aI296
aI365
aI168
aI96
aI185
aI397
aI192
aI156
aI325
aI760
aI38
aI403
aI96
aI85
aI241
aI276
aI179
aI192
aI340
aI134
aI185
aI414
aI169
aI468
aI286
aI361
aI304
aI348
aI162
aI86
aI151
aI201
aI429
aI280
aI303
aI86
aI266
aI205
aI85
aI179
aI184
aI408
aI89
aI78
aI92
aI43
aI91
aI624
aI166
aI295
aI304
aI178
aI395
aI313
aI82
aI300
aI162
aI83
aI399
aI74
aI387
aI315
aI317
aI164
aI303
aI353
aI191
aI172
aI389
aI69
aI448
aI202
aI308
aI87
aI390
aI654
aI190
aI399
aI36
aI151
aI420
aI318
aI297
aI439
aI263
aI214
aI321
aI249
aI301
aI194
aI330
aI263
aI39
aI203
aI572
aI171
aI183
aI444
aI648
aI210
aI91
aI164
aI162
aI585
aI343
aI75
aI344
aI1376
aI171
aI269
aI642
aI149
aI278
aI354
aI711
aI169
aI322
aI171
aI4432
aI13
aI649
aI164
aI302
aI625
aI87
aI296
aI190
aI78
aI87
aI45
aI352
aI451
aI181
aI201
aI399
aI619
aI164
aI162
aI177
aI265
aI84
aI38
aI660
aI180
aI34
aI141
aI88
aI160
aI366
aI370
aI153
aI172
aI311
aI76
aI555
aI171
aI380
aI18
aI268
aI728
aI75
aI170
aI189
aI214
aI76
aI172
aI207
aI217
aI448
aI410
aI310
aI155
aI189
aI325
aI168
aI147
aI738
aI282
aI170
aI140
aI278
aI198
aI332
aI84
aI148
aI358
aI76
aI162
aI179
aI89
aI168
aI407
aI89
aI170
aI141
aI161
aI171
aI82
aI1488
aI353
aI289
aI161
aI161
aI95
aI666
aI82
aI82
aI167
aI66
aI414
aI387
aI169
aI167
aI161
aI35
aI154
aI182
aI86
aI84
aI279
aI167
aI378
aI161
aI273
aI304
aI287
aI300
aI489
aI727
aI79
aI175
aI200
aI143
aI174
aI1445
aI79
aI161
aI190
aI352
aI267
aI259
aI282
aI308
aI162
aI174
aI183
aI174
aI78
aI251
aI168
aI359
aI163
aI364
aI351
aI333
aI401
aI82
aI382
aI170
aI357
aI291
aI194
aI274
aI45
aI256
aI95
aI341
aI152
aI260
aI80
aI77
aI15
aI359
aI162
aI431
aI156
aI159
aI184
aI662
aI40
aI168
aI154
aI159
aI158
aI155
aI290
aI557
aI171
aI315
aI355
aI1
aI618
aI159
aI256
aI160
aI120
aI189
aI179
aI317
aI161
aI168
aI295
aI315
aI259
aI402
aI157
aI359
aI191
aI178
aI688
aI391
aI74
aI620
aI158
aI316
aI656
aI86
aI194
aI179
aI329
aI478
aI588
aI42
aI94
aI17
aI303
aI169
aI15
aI175
aI40
aI152
aI169
aI188
aI166
aI673
aI297
aI82
aI193
aI151
aI166
aI173
aI836
aI169
aI171
aI179
aI31
aI287
aI400
aI273
aI190
aI82
aI171
aI377
aI280
aI14
aI171
aI312
aI167
aI303
aI384
aI764
aI425
aI79
aI345
aI170
aI191
aI776
aI347
aI163
aI139
aI304
aI424
aI159
aI164
aI76
aI328
aI655
aI660
aI673
aI341
aI182
aI711
aI158
aI382
aI2828
aI173
aI325
aI359
aI186
aI169
aI372
aI617
aI339
aI195
aI353
aI193
aI193
aI150
aI90
aI191
aI133
aI341
aI286
aI167
aI161
aI361
aI84
aI291
aI33
aI260
aI318
aI152
aI265
aI394
aI340
aI404
aI1060
aI167
aI88
aI426
aI88
aI330
aI179
aI354
aI374
aI542
aI432
aI510
aI175
aI80
aI209
aI160
aI1421
aI154
aI162
aI183
aI168
aI0
aI159
aI43
aI38
aI282
aI87
aI438
aI79
aI63
aI181
aI75
aI83
aI156
aI322
aI81
aI44
aI417
aI91
aI355
aI443
aI34
aI651
aI196
aI328
aI184
aI637
aI373
aI38
aI381
aI208
aI288
aI168
aI470
aI178
aI307
aI39
aI165
aI350
aI749
aI176
aI387
aI168
aI172
aI631
aI155
aI170
aI183
aI84
aI646
aI159
aI1507
aI312
aI395
aI323
aI366
aI86
aI355
aI90
aI140
aI173
aI169
aI136
aI170
aI385
aI169
aI172
aI141
aI40
aI278
aI416
aI210
aI201
aI159
aI185
aI177
aI172
aI72
aI330
aI175
aI86
aI450
aI570
aI185
aI33
aI197
aI172
aI182
aI169
aI398
aI345
aI83
aI170
aI329
aI66
aI350
aI217
aI162
aI89
aI356
aI161
aI187
aI124
aI325
aI77
aI164
aI167
aI372
aI151
aI169
aI371
aI459
aI263
aI90
aI164
aI35
aI316
aI271
aI626
aI322
aI69
aI180
aI33
aI77
aI357
aI728
aI176
aI96
aI275
aI83
aI385
aI162
aI176
aI252
aI327
aI79
aI185
aI87
aI372
aI314
aI416
aI500
aI486
aI160
aI82
aI346
aI171
aI309
aI268
aI344
aI266
aI35
aI158
aI364
aI158
aI80
aI326
aI78
aI188
aI159
aI298
aI620
aI189
aI308
aI326
aI212
aI158
aI35
aI369
aI175
aI697
aI604
aI174
aI190
aI178
aI167
aI1517
aI154
aI173
aI153
aI455
aI628
aI201
aI78
aI196
aI159
aI198
aI258
aI376
aI654
aI168
aI160
aI199
aI604
aI385
aI77
aI177
aI173
aI176
aI180
aI372
aI174
aI184
aI634
aI372
aI172
aI171
aI167
aI175
aI368
aI170
aI197
aI155
aI82
aI205
aI82
aI166
aI338
aI156
aI830
aI296
aI180
aI173
aI449
aI357
aI359
aI165
aI428
aI155
aI176
aI173
aI83
aI441
aI40
aI359
aI659
aI195
aI173
aI569
aI156
aI611
aI369
aI394
aI296
aa(lp20
I93
aI618
aI75
aI173
aI170
aI43
aI198
aI417
aI327
aI196
aI344
aI186
aI183
aI182
aI571
aI334
aI188
aI183
aI195
aI164
aI39
aI307
aI182
aI81
aI313
aI176
aI86
aI79
aI360
aI194
aI78
aI354
aI198
aI358
aI97
aI190
aI351
aI35
aI170
aI187
aI154
aI159
aI259
aI424
aI332
aI201
aI191
aI403
aI288
aI185
aI17
aI137
aI724
aI175
aI326
aI337
aI261
aI181
aI167
aI332
aI208
aI276
aI512
aI344
aI334
aI390
aI173
aI166
aI386
aI362
aI282
aI15
aI316
aI36
aI643
aI150
aI310
aI87
aI168
aI319
aI139
aI170
aI655
aI252
aI609
aI292
aI131
aI168
aI169
aI311
aI169
aI43
aI77
aI193
aI167
aI177
aI157
aI348
aI4
aI166
aI39
aI356
aI173
aI199
aI295
aI203
aI374
aI167
aI377
aI177
aI499
aI320
aI270
aI194
aI140
aI159
aI39
aI342
aI74
aI80
aI294
aI293
aI167
aI605
aI68
aI192
aI213
aI266
aI288
aI167
aI295
aI200
aI424
aI17
aI175
aI334
aI779
aI588
aI409
aI145
aI558
aI184
aI185
aI377
aI165
aI320
aI78
aI79
aI71
aI34
aI296
aI198
aI83
aI159
aI163
aI350
aI392
aI95
aI95
aI430
aI265
aI183
aI158
aI340
aI359
aI1502
aI419
aI158
aI359
aI90
aI383
aI363
aI189
aI316
aI40
aI193
aI82
aI164
aI184
aI176
aI1073
aI148
aI439
aI161
aI84
aI771
aI347
aI1381
aI250
aI342
aI296
aI175
aI323
aI39
aI85
aI197
aI424
aI171
aI79
aI628
aI361
aI354
aI199
aI186
aI288
aI167
aI187
aI198
aI166
aI383
aI174
aI186
aI338
aI169
aI416
aI91
aI815
aI161
aI292
aI372
aI237
aI79
aI38
aI169
aI157
aI179
aI364
aI327
aI366
aI304
aI306
aI394
aI388
aI318
aI293
aI698
aI175
aI283
aI44
aI162
aI343
aI165
aI182
aI611
aI80
aI74
aI257
aI82
aI711
aI85
aI612
aI174
aI179
aI70
aI164
aI152
aI40
aI348
aI179
aI308
aI157
aI168
aI168
aI356
aI628
aI836
aI452
aI353
aI174
aI183
aI643
aI432
aI165
aI163
aI751
aI121
aI164
aI390
aI184
aI360
aI281
aI162
aI85
aI154
aI192
aI289
aI430
aI89
aI314
aI90
aI179
aI289
aI323
aI177
aI347
aI98
aI183
aI341
aI161
aI360
aI81
aI286
aI184
aI334
aI171
aI349
aI204
aI379
aI141
aI197
aI203
aI163
aI181
aI402
aI368
aI272
aI359
aI287
aI184
aI182
aI180
aI84
aI167
aI88
aI654
aI180
aI356
aI669
aI168
aI353
aI165
aI350
aI81
aI154
aI173
aI43
aI192
aI180
aI177
aI169
aI311
aI640
aI274
aI178
aI303
aI342
aI389
aI251
aI394
aI387
aI175
aI390
aI179
aI163
aI151
aI189
aI76
aI293
aI191
aI80
aI335
aI172
aI365
aI348
aI185
aI92
aI285
aI177
aI199
aI306
aI79
aI317
aI76
aI302
aI812
aI79
aI165
aI80
aI185
aI42
aI340
aI90
aI357
aI324
aI714
aI175
aI339
aI177
aI173
aI156
aI365
aI298
aI84
aI141
aI1043
aI345
aI156
aI311
aI180
aI175
aI164
aI628
aI306
aI333
aI178
aI142
aI95
aI365
aI173
aI165
aI324
aI185
aI292
aI342
aI444
aI185
aI388
aI154
aI141
aI803
aI38
aI521
aI182
aI38
aI156
aI357
aI162
aI310
aI166
aI336
aI186
aI270
aI344
aI162
aI191
aI172
aI86
aI333
aI345
aI351
aI165
aI2
aI326
aI357
aI151
aI83
aI1434
aI169
aI192
aI200
aI337
aI163
aI273
aI292
aI242
aI618
aI129
aI209
aI348
aI158
aI197
aI81
aI338
aI344
aI185
aI562
aI46
aI314
aI161
aI435
aI35
aI182
aI540
aI201
aI352
aI367
aI353
aI150
aI155
aI82
aI152
aI361
aI254
aI449
aI70
aI620
aI325
aI405
aI341
aI796
aI167
aI165
aI178
aI191
aI343
aI192
aI390
aI390
aI160
aI374
aI1111
aI428
aI148
aI200
aI283
aI174
aI327
aI614
aI276
aI14
aI84
aI346
aI600
aI185
aI429
aI79
aI171
aI622
aI306
aI185
aI157
aI568
aI183
aI531
aI155
aI651
aI338
aI158
aI82
aI270
aI293
aI283
aI280
aI170
aI81
aI132
aI358
aI86
aI399
aI159
aI298
aI276
aI179
aI1038
aI348
aI545
aI285
aI268
aI40
aI264
aI262
aI179
aI165
aI320
aI289
aI308
aI370
aI84
aI86
aI341
aI336
aI321
aI645
aI330
aI168
aI175
aI276
aI194
aI786
aI287
aI420
aI160
aI173
aI162
aI169
aI82
aI335
aI170
aI80
aI174
aI205
aI199
aI270
aI635
aI81
aI295
aI94
aI165
aI751
aI84
aI876
aI641
aI334
aI87
aI169
aI535
aI808
aI326
aI308
aI544
aI174
aI254
aI320
aI78
aI375
aI350
aI1472
aI298
aI356
aI662
aI179
aI184
aI372
aI73
aI158
aI183
aI177
aI206
aI801
aI346
aI342
aI126
aI185
aI201
aI153
aI181
aI330
aI284
aI89
aI174
aI603
aI75
aI155
aI181
aI188
aI15
aI87
aI356
aI256
aI556
aI148
aI345
aI171
aI398
aI166
aI209
aI176
aI175
aI196
aI674
aI264
aI336
aI362
aI183
aI179
aI267
aI268
aI320
aI89
aI38
aI81
aI187
aI190
aI297
aI318
aI340
aI325
aI122
aI168
aI582
aI355
aI41
aI189
aI253
aI165
aI334
aI432
aI194
aI353
aI66
aI376
aI181
aI387
aI360
aI198
aI298
aI608
aI170
aI145
aI85
aI169
aI172
aI341
aI349
aI270
aI257
aI325
aI413
aI145
aI181
aI192
aI199
aI193
aI382
aI149
aI173
aI380
aI197
aI81
aI84
aI218
aI339
aI274
aI162
aI639
aI236
aI324
aI1
aI194
aI407
aI274
aI367
aI447
aI554
aI162
aI180
aI189
aI400
aI81
aI577
aI664
aI85
aI605
aI169
aI358
aI83
aI74
aI191
aI198
aI155
aI1277
aI288
aI93
aI583
aI65
aI342
aI173
aI16
aI295
aI337
aI159
aI1357
aI620
aI80
aI85
aI44
aI455
aI1152
aI88
aI347
aI185
aI306
aI372
aI320
aI425
aI252
aI376
aI336
aI383
aI297
aI36
aI161
aI387
aI124
aI299
aI179
aI341
aI170
aI373
aI162
aI78
aI161
aI376
aI86
aI198
aI608
aI157
aI177
aI297
aI362
aI168
aI332
aI38
aI172
aI204
aI90
aI306
aI181
aI137
aI86
aI73
aI345
aI303
aI178
aI177
aI172
aI42
aI90
aI272
aI283
aI1322
aI190
aI406
aI352
aI79
aI339
aI154
aI170
aI344
aI690
aI175
aI522
aI35
aI322
aI278
aI185
aI81
aI344
aI77
aI78
aI163
aI315
aI164
aI71
aI656
aI345
aI201
aI309
aI188
aI175
aI82
aI258
aI179
aI166
aI163
aI167
aI399
aI150
aI174
aI358
aI151
aI14
aI168
aI257
aI160
aI452
aI190
aI367
aI189
aI181
aI94
aI189
aI178
aI68
aI184
aI314
aI171
aI343
aI321
aI179
aI303
aI847
aI271
aI164
aI328
aI156
aI173
aI362
aI182
aI40
aI409
aI166
aI159
aI458
aI198
aI258
aI186
aI410
aI421
aI267
aI445
aI355
aI274
aI175
aI176
aI300
aI170
aI620
aI354
aI396
aI40
aI663
aI317
aI163
aI305
aI171
aI147
aI165
aI295
aI414
aI167
aI407
aI164
aI345
aI333
aI330
aI141
aI164
aI343
aI161
aI332
aI192
aI638
aI298
aI370
aI154
aI611
aI357
aI98
aI366
aI527
aI85
aI358
aI167
aI35
aI267
aI342
aI192
aI169
aI409
aI150
aI248
aI286
aI160
aI138
aI146
aI332
aI194
aI88
aI341
aI171
aI85
aI728
aI667
aI187
aI280
aI160
aI345
aI279
aI370
aI167
aI346
aI312
aI345
aI437
aI204
aI174
aI158
aI339
aI85
aI348
aI602
aI614
aI361
aI175
aI347
aI184
aI171
aI219
aI151
aI456
aI366
aI259
aI2
aI201
aI369
aI166
aI277
aI842
aI169
aI322
aI286
aI367
aI188
aI67
aI274
aI176
aI218
aI141
aI175
aa(lp21
I161
aI385
aI302
aI333
aI81
aI299
aI159
aI86
aI287
aI140
aI615
aI141
aI16
aI182
aI151
aI426
aI1283
aI165
aI409
aI660
aI200
aI196
aI173
aI428
aI444
aI339
aI165
aI162
aI180
aI171
aI370
aI287
aI402
aI356
aI258
aI276
aI40
aI212
aI147
aI639
aI192
aI165
aI320
aI319
aI805
aI30
aI419
aI384
aI441
aI184
aI90
aI287
aI153
aI169
aI344
aI378
aI253
aI344
aI179
aI264
aI329
aI243
aI200
aI35
aI389
aI188
aI278
aI615
aI174
aI680
aI184
aI91
aI86
aI368
aI184
aI175
aI158
aI86
aI369
aI631
aI356
aI583
aI177
aI167
aI80
aI294
aI323
aI331
aI202
aI601
aI175
aI147
aI200
aI85
aI340
aI85
aI177
aI843
aI178
aI462
aI351
aI42
aI175
aI179
aI388
aI340
aI86
aI190
aI150
aI177
aI160
aI184
aI176
aI199
aI432
aI397
aI159
aI345
aI204
aI277
aI78
aI144
aI207
aI310
aI339
aI433
aI355
aI177
aI40
aI84
aI274
aI456
aI190
aI350
aI327
aI314
aI160
aI174
aI196
aI155
aI329
aI270
aI171
aI193
aI86
aI350
aI135
aI275
aI176
aI334
aI41
aI305
aI150
aI166
aI421
aI378
aI194
aI81
aI173
aI161
aI290
aI309
aI187
aI176
aI343
aI169
aI177
aI168
aI34
aI157
aI150
aI320
aI196
aI169
aI171
aI377
aI335
aI319
aI303
aI78
aI34
aI339
aI172
aI99
aI258
aI159
aI290
aI1367
aI343
aI430
aI37
aI638
aI82
aI41
aI402
aI75
aI315
aI416
aI84
aI174
aI338
aI72
aI88
aI169
aI528
aI734
aI149
aI75
aI77
aI161
aI335
aI152
aI171
aI120
aI88
aI629
aI340
aI272
aI162
aI265
aI184
aI190
aI344
aI166
aI42
aI328
aI169
aI91
aI618
aI327
aI355
aI266
aI206
aI635
aI321
aI647
aI100
aI286
aI334
aI156
aI158
aI326
aI351
aI183
aI84
aI40
aI203
aI152
aI80
aI81
aI382
aI670
aI259
aI162
aI331
aI184
aI88
aI330
aI581
aI383
aI178
aI429
aI355
aI177
aI35
aI737
aI339
aI171
aI169
aI303
aI81
aI142
aI82
aI373
aI312
aI328
aI375
aI152
aI404
aI165
aI191
aI184
aI324
aI672
aI339
aI191
aI203
aI91
aI167
aI74
aI156
aI372
aI550
aI174
aI1009
aI323
aI95
aI350
aI171
aI343
aI173
aI419
aI330
aI357
aI81
aI360
aI280
aI158
aI167
aI166
aI629
aI382
aI172
aI81
aI152
aI80
aI336
aI294
aI352
aI541
aI89
aI381
aI329
aI597
aI547
aI739
aI339
aI339
aI336
aI204
aI312
aI40
aI167
aI199
aI204
aI85
aI307
aI166
aI186
aI146
aI79
aI159
aI171
aI301
aI341
aI179
aI344
aI344
aI157
aI193
aI537
aI174
aI168
aI406
aI183
aI391
aI583
aI676
aI89
aI184
aI1288
aI347
aI163
aI45
aI618
aI286
aI147
aI252
aI169
aI556
aI160
aI762
aI145
aI44
aI186
aI335
aI179
aI1894
aI344
aI35
aI183
aI83
aI353
aI341
aI119
aI316
aI370
aI590
aI275
aI531
aI161
aI417
aI186
aI368
aI361
aI387
aI156
aI585
aI291
aI82
aI385
aI358
aI348
aI175
aI357
aI87
aI166
aI166
aI175
aI377
aI314
aI273
aI539
aI193
aI131
aI309
aI306
aI71
aI169
aI198
aI170
aI166
aI2
aI172
aI80
aI190
aI75
aI544
aI361
aI15
aI294
aI78
aI320
aI2
aI40
aI176
aI869
aI176
aI175
aI70
aI1181
aI715
aI187
aI82
aI340
aI199
aI192
aI179
aI396
aI209
aI312
aI352
aI1232
aI165
aI167
aI160
aI265
aI36
aI303
aI202
aI147
aI773
aI179
aI643
aI620
aI348
aI281
aI292
aI148
aI82
aI360
aI323
aI342
aI180
aI170
aI340
aI337
aI568
aI285
aI152
aI163
aI83
aI155
aI178
aI178
aI187
aI4
aI168
aI189
aI131
aI1
aI219
aI306
aI266
aI91
aI164
aI419
aI379
aI181
aI345
aI88
aI176
aI326
aI118
aI46
aI312
aI194
aI155
aI81
aI95
aI166
aI195
aI173
aI139
aI154
aI91
aI267
aI394
aI201
aI619
aI329
aI160
aI310
aI77
aI166
aI378
aI170
aI80
aI326
aI85
aI167
aI349
aI311
aI83
aI495
aI401
aI149
aI347
aI243
aI101
aI183
aI36
aI175
aI298
aI591
aI188
aI215
aI309
aI182
aI311
aI164
aI269
aI194
aI306
aI181
aI633
aI193
aI167
aI176
aI189
aI348
aI158
aI352
aI133
aI269
aI191
aI154
aI366
aI190
aI586
aI185
aI159
aI341
aI172
aI183
aI341
aI157
aI164
aI360
aI87
aI77
aI148
aI345
aI573
aI200
aI158
aI317
aI166
aI83
aI353
aI679
aI147
aI609
aI147
aI171
aI337
aI161
aI267
aI179
aI356
aI197
aI151
aI373
aI141
aI372
aI334
aI185
aI92
aI355
aI401
aI172
aI375
aI631
aI384
aI271
aI164
aI149
aI326
aI80
aI41
aI175
aI355
aI177
aI186
aI161
aI195
aI425
aI207
aI70
aI839
aI173
aI296
aI332
aI83
aI172
aI37
aI244
aI1310
aI360
aI348
aI87
aI81
aI167
aI326
aI309
aI184
aI165
aI286
aI351
aI196
aI295
aI590
aI311
aI155
aI159
aI261
aI161
aI67
aI172
aI187
aI371
aI367
aI302
aI422
aI328
aI77
aI385
aI600
aI279
aI449
aI576
aI350
aI265
aI361
aI146
aI180
aI350
aI84
aI340
aI351
aI84
aI364
aI335
aI303
aI73
aI170
aI180
aI196
aI332
aI148
aI159
aI81
aI84
aI539
aI164
aI164
aI250
aI170
aI172
aI303
aI60
aI141
aI79
aI398
aI158
aI1010
aI79
aI404
aI369
aI340
aI588
aI71
aI294
aI164
aI1010
aI627
aI286
aI930
aI166
aI315
aI333
aI191
aI361
aI425
aI178
aI145
aI339
aI352
aI170
aI160
aI79
aI168
aI553
aI316
aI360
aI408
aI128
aI352
aI282
aI185
aI322
aI165
aI191
aI431
aI348
aI1393
aI201
aI394
aI344
aI191
aI644
aI389
aI166
aI411
aI610
aI378
aI80
aI270
aI77
aI694
aI138
aI674
aI245
aI678
aI267
aI192
aI84
aI167
aI196
aI338
aI194
aI346
aI1028
aI551
aI336
aI145
aI35
aI347
aI75
aI172
aI166
aI161
aI348
aI155
aI262
aI734
aI192
aI179
aI296
aI642
aI346
aI427
aI278
aI323
aI89
aI70
aI589
aI80
aI182
aI74
aI182
aI192
aI350
aI350
aI85
aI81
aI544
aI308
aI388
aI39
aI78
aI80
aI1301
aI158
aI183
aI204
aI322
aI32
aI37
aI164
aI161
aI354
aI447
aI191
aI179
aI353
aI45
aI385
aI76
aI172
aI175
aI287
aI362
aI176
aI258
aI84
aI335
aI349
aI364
aI171
aI204
aI367
aI79
aI169
aI84
aI170
aI177
aI379
aI291
aI75
aI179
aI404
aI306
aI329
aI352
aI69
aI85
aI189
aI165
aI189
aI162
aI207
aI41
aI256
aI139
aI145
aI160
aI346
aI97
aI133
aI124
aI317
aI328
aI321
aI273
aI177
aI579
aI307
aI39
aI310
aI274
aI187
aI91
aI267
aI83
aI162
aI181
aI163
aI407
aI408
aI298
aI195
aI175
aI330
aI165
aI410
aI574
aI161
aI811
aI338
aI168
aI311
aI652
aI162
aI619
aI184
aI165
aI154
aI357
aI434
aI199
aI357
aI170
aI395
aI408
aI586
aI458
aI177
aI170
aI89
aI359
aI162
aI355
aI1287
aI168
aI72
aI310
aI168
aI182
aI172
aI188
aI67
aI383
aI169
aI359
aI519
aI71
aI159
aI205
aI172
aI350
aI377
aI36
aI173
aI334
aI201
aI182
aI174
aI167
aI83
aI385
aI286
aI404
aI169
aI179
aI314
aI71
aI153
aI190
aI431
aI15
aI166
aI165
aI172
aI345
aI326
aI627
aI350
aI187
aI265
aI283
aI157
aI398
aI372
aI416
aI147
aI197
aI173
aI173
aI615
aI193
aI273
aI663
aI193
aI78
aI36
aI167
aI381
aI185
aI178
aI343
aI166
aI193
aI305
aI202
aI172
aI175
aI257
aI269
aI362
aa(lp22
I388
aI83
aI372
aI349
aI281
aI74
aI670
aI143
aI77
aI167
aI194
aI325
aI353
aI320
aI178
aI207
aI391
aI279
aI272
aI268
aI549
aI323
aI88
aI275
aI183
aI83
aI135
aI170
aI172
aI349
aI357
aI302
aI262
aI338
aI397
aI160
aI149
aI172
aI335
aI182
aI307
aI347
aI613
aI197
aI172
aI87
aI144
aI162
aI286
aI333
aI164
aI357
aI79
aI155
aI305
aI332
aI169
aI231
aI198
aI175
aI194
aI315
aI323
aI79
aI71
aI75
aI331
aI164
aI191
aI187
aI283
aI82
aI80
aI312
aI186
aI82
aI334
aI167
aI597
aI300
aI273
aI156
aI331
aI330
aI155
aI295
aI277
aI344
aI184
aI203
aI171
aI703
aI393
aI306
aI284
aI180
aI166
aI153
aI260
aI346
aI592
aI324
aI171
aI166
aI149
aI592
aI368
aI167
aI191
aI334
aI688
aI384
aI138
aI572
aI367
aI291
aI180
aI348
aI82
aI77
aI378
aI173
aI306
aI431
aI161
aI190
aI329
aI608
aI158
aI188
aI173
aI652
aI193
aI339
aI189
aI611
aI147
aI603
aI181
aI161
aI162
aI319
aI82
aI301
aI263
aI187
aI173
aI324
aI181
aI273
aI330
aI73
aI789
aI191
aI145
aI96
aI323
aI140
aI1880
aI336
aI137
aI159
aI175
aI602
aI378
aI181
aI272
aI277
aI122
aI345
aI136
aI192
aI193
aI191
aI80
aI274
aI87
aI267
aI312
aI425
aI79
aI278
aI170
aI178
aI163
aI161
aI353
aI353
aI43
aI322
aI79
aI392
aI191
aI156
aI164
aI286
aI327
aI168
aI276
aI185
aI152
aI166
aI551
aI80
aI377
aI167
aI37
aI87
aI169
aI325
aI201
aI384
aI177
aI152
aI169
aI323
aI39
aI278
aI74
aI335
aI357
aI321
aI261
aI73
aI175
aI556
aI268
aI275
aI131
aI156
aI274
aI351
aI180
aI596
aI157
aI258
aI170
aI361
aI566
aI76
aI401
aI406
aI178
aI167
aI189
aI1066
aI157
aI729
aI372
aI167
aI727
aI37
aI152
aI182
aI163
aI36
aI142
aI347
aI163
aI305
aI78
aI313
aI593
aI342
aI1357
aI612
aI157
aI353
aI605
aI15
aI331
aI528
aI814
aI1322
aI158
aI176
aI329
aI376
aI331
aI172
aI343
aI146
aI197
aI160
aI274
aI184
aI317
aI72
aI38
aI175
aI160
aI177
aI41
aI319
aI192
aI72
aI309
aI151
aI85
aI361
aI411
aI386
aI283
aI569
aI317
aI157
aI163
aI554
aI180
aI269
aI349
aI506
aI79
aI284
aI83
aI340
aI189
aI196
aI344
aI99
aI168
aI181
aI830
aI378
aI253
aI176
aI88
aI611
aI200
aI263
aI583
aI251
aI177
aI269
aI71
aI403
aI44
aI284
aI173
aI187
aI342
aI172
aI91
aI298
aI39
aI385
aI169
aI78
aI186
aI169
aI145
aI284
aI302
aI160
aI175
aI327
aI148
aI158
aI341
aI297
aI651
aI82
aI297
aI341
aI335
aI190
aI95
aI136
aI284
aI169
aI75
aI379
aI346
aI87
aI505
aI82
aI571
aI318
aI538
aI379
aI191
aI787
aI168
aI43
aI93
aI591
aI182
aI186
aI192
aI161
aI197
aI187
aI177
aI174
aI316
aI78
aI301
aI78
aI133
aI161
aI554
aI124
aI363
aI260
aI77
aI623
aI188
aI198
aI336
aI329
aI300
aI87
aI310
aI194
aI165
aI327
aI318
aI548
aI386
aI188
aI846
aI305
aI3711
aI520
aI317
aI79
aI175
aI314
aI188
aI155
aI177
aI336
aI294
aI84
aI80
aI335
aI593
aI525
aI323
aI287
aI705
aI363
aI277
aI578
aI171
aI157
aI301
aI266
aI144
aI269
aI182
aI14
aI357
aI651
aI289
aI299
aI64
aI123
aI351
aI80
aI160
aI333
aI162
aI188
aI636
aI565
aI162
aI179
aI159
aI183
aI77
aI172
aI150
aI11
aI38
aI145
aI639
aI173
aI182
aI347
aI189
aI639
aI625
aI35
aI172
aI174
aI185
aI140
aI175
aI663
aI82
aI334
aI174
aI266
aI273
aI166
aI172
aI528
aI181
aI344
aI85
aI45
aI250
aI264
aI195
aI161
aI327
aI79
aI160
aI348
aI164
aI618
aI183
aI87
aI167
aI180
aI314
aI42
aI174
aI562
aI335
aI318
aI35
aI373
aI169
aI395
aI80
aI165
aI141
aI74
aI160
aI686
aI333
aI379
aI629
aI347
aI176
aI77
aI92
aI409
aI171
aI297
aI16
aI293
aI674
aI150
aI345
aI324
aI125
aI191
aI174
aI198
aI181
aI156
aI169
aI303
aI570
aI163
aI170
aI299
aI357
aI91
aI728
aI138
aI161
aI180
aI188
aI182
aI294
aI304
aI172
aI81
aI133
aI176
aI333
aI155
aI181
aI359
aI283
aI289
aI580
aI72
aI187
aI87
aI315
aI151
aI158
aI576
aI179
aI994
aI365
aI204
aI318
aI171
aI440
aI171
aI345
aI381
aI177
aI179
aI77
aI75
aI350
aI197
aI324
aI376
aI322
aI417
aI84
aI186
aI91
aI149
aI159
aI182
aI196
aI193
aI320
aI159
aI440
aI133
aI316
aI271
aI380
aI173
aI192
aI199
aI1241
aI559
aI598
aI595
aI200
aI85
aI179
aI419
aI165
aI90
aI169
aI146
aI522
aI584
aI201
aI341
aI172
aI191
aI174
aI342
aI377
aI561
aI317
aI181
aI17
aI305
aI582
aI659
aI84
aI250
aI408
aI804
aI140
aI200
aI196
aI190
aI164
aI333
aI318
aI156
aI253
aI284
aI379
aI160
aI157
aI119
aI162
aI161
aI81
aI82
aI166
aI185
aI76
aI327
aI206
aI535
aI363
aI177
aI289
aI388
aI194
aI74
aI163
aI37
aI197
aI175
aI191
aI361
aI198
aI245
aI174
aI163
aI169
aI182
aI85
aI323
aI250
aI201
aI162
aI79
aI335
aI586
aI350
aI92
aI201
aI207
aI294
aI729
aI383
aI78
aI175
aI78
aI199
aI39
aI182
aI32
aI180
aI700
aI390
aI621
aI164
aI187
aI301
aI196
aI292
aI173
aI170
aI315
aI301
aI186
aI190
aI752
aI12
aI670
aI172
aI323
aI266
aI181
aI41
aI78
aI322
aI282
aI317
aI518
aI156
aI165
aI349
aI175
aI166
aI159
aI380
aI160
aI609
aI320
aI574
aI182
aI183
aI341
aI569
aI143
aI325
aI597
aI293
aI149
aI194
aI76
aI410
aI79
aI331
aI394
aI592
aI123
aI285
aI321
aI577
aI677
aI389
aI728
aI75
aI190
aI80
aI337
aI176
aI14
aI590
aI172
aI296
aI328
aI320
aI150
aI170
aI199
aI340
aI184
aI350
aI334
aI310
aI163
aI336
aI156
aI320
aI190
aI169
aI171
aI361
aI70
aI134
aI186
aI343
aI341
aI551
aI80
aI393
aI82
aI189
aI84
aI35
aI82
aI196
aI364
aI179
aI15
aI174
aI184
aI393
aI183
aI445
aI80
aI197
aI425
aI578
aI399
aI371
aI84
aI160
aI373
aI374
aI582
aI91
aI97
aI339
aI189
aI158
aI335
aI632
aI320
aI277
aI83
aI166
aI170
aI168
aI603
aI166
aI392
aI307
aI354
aI251
aI205
aI352
aI39
aI167
aI271
aI173
aI161
aI385
aI282
aI238
aI357
aI345
aI192
aI393
aI285
aI386
aI162
aI172
aI697
aI364
aI94
aI91
aI530
aI161
aI66
aI444
aI271
aI172
aI302
aI323
aI286
aI146
aI663
aI657
aI169
aI171
aI384
aI178
aI403
aI173
aI211
aI594
aI190
aI158
aI778
aI147
aI163
aI148
aI593
aI163
aI337
aI79
aI95
aI90
aI174
aI235
aI292
aI77
aI616
aI346
aI339
aI38
aI164
aI153
aI157
aI159
aI310
aI35
aI575
aI392
aI84
aI340
aI549
aI317
aI594
aI305
aI402
aI418
aI583
aI276
aI173
aI354
aI317
aI864
aI79
aI265
aI323
aI329
aI373
aI290
aI12
aI1326
aI187
aI1378
aI322
aI353
aI151
aI170
aI582
aI330
aI288
aI177
aI249
aI189
aI166
aI191
aI37
aI325
aI385
aI85
aI328
aI321
aI12
aI159
aI263
aI163
aI161
aI158
aI44
aI78
aI580
aI353
aI302
aI128
aI176
aI277
aI182
aI65
aI182
aI293
aI160
aI41
aI424
aI86
aI160
aI590
aI343
aa(lp23
I271
aI167
aI170
aI159
aI420
aI84
aI172
aI168
aI84
aI169
aI182
aI151
aI288
aI236
aI422
aI334
aI363
aI348
aI320
aI170
aI396
aI331
aI598
aI273
aI177
aI166
aI82
aI189
aI100
aI358
aI352
aI152
aI301
aI295
aI271
aI38
aI339
aI175
aI385
aI348
aI424
aI155
aI328
aI83
aI86
aI81
aI151
aI99
aI148
aI152
aI171
aI168
aI81
aI151
aI319
aI36
aI174
aI79
aI306
aI194
aI163
aI192
aI156
aI94
aI143
aI155
aI289
aI554
aI193
aI379
aI154
aI378
aI315
aI591
aI330
aI164
aI170
aI295
aI249
aI227
aI307
aI356
aI160
aI585
aI299
aI285
aI2
aI310
aI330
aI493
aI566
aI175
aI174
aI158
aI159
aI367
aI305
aI159
aI336
aI325
aI158
aI168
aI323
aI575
aI156
aI174
aI41
aI92
aI397
aI847
aI370
aI76
aI499
aI554
aI177
aI307
aI263
aI174
aI154
aI180
aI297
aI342
aI184
aI192
aI157
aI614
aI566
aI175
aI158
aI85
aI178
aI126
aI380
aI340
aI271
aI324
aI76
aI339
aI383
aI182
aI320
aI635
aI167
aI408
aI84
aI604
aI581
aI308
aI164
aI1168
aI304
aI339
aI0
aI203
aI13
aI41
aI197
aI343
aI408
aI313
aI87
aI289
aI164
aI168
aI287
aI384
aI158
aI88
aI346
aI87
aI161
aI346
aI141
aI133
aI284
aI347
aI408
aI277
aI177
aI157
aI152
aI366
aI565
aI163
aI347
aI329
aI126
aI167
aI172
aI268
aI348
aI272
aI160
aI351
aI183
aI156
aI574
aI160
aI167
aI78
aI332
aI289
aI74
aI13
aI78
aI173
aI294
aI268
aI160
aI545
aI160
aI263
aI13
aI377
aI179
aI87
aI172
aI393
aI349
aI290
aI293
aI167
aI545
aI404
aI178
aI183
aI714
aI173
aI582
aI271
aI192
aI525
aI295
aI314
aI179
aI82
aI194
aI321
aI170
aI266
aI195
aI175
aI154
aI678
aI667
aI367
aI162
aI368
aI304
aI183
aI184
aI142
aI321
aI174
aI416
aI284
aI183
aI407
aI176
aI185
aI43
aI712
aI164
aI171
aI168
aI295
aI172
aI361
aI333
aI286
aI197
aI187
aI39
aI227
aI77
aI155
aI75
aI81
aI363
aI188
aI143
aI171
aI332
aI643
aI156
aI195
aI43
aI13
aI166
aI160
aI402
aI340
aI96
aI184
aI352
aI84
aI191
aI14
aI212
aI332
aI159
aI287
aI195
aI239
aI39
aI176
aI75
aI165
aI311
aI326
aI177
aI335
aI173
aI179
aI271
aI161
aI155
aI402
aI572
aI79
aI169
aI180
aI177
aI35
aI156
aI314
aI335
aI156
aI174
aI311
aI167
aI292
aI265
aI373
aI324
aI79
aI204
aI144
aI178
aI157
aI320
aI201
aI171
aI196
aI514
aI269
aI193
aI181
aI726
aI168
aI4
aI139
aI361
aI333
aI263
aI280
aI384
aI683
aI164
aI185
aI598
aI83
aI423
aI90
aI182
aI255
aI553
aI168
aI148
aI180
aI320
aI190
aI170
aI141
aI160
aI179
aI187
aI159
aI259
aI339
aI567
aI342
aI146
aI204
aI81
aI85
aI154
aI333
aI313
aI180
aI185
aI168
aI345
aI594
aI303
aI94
aI167
aI171
aI270
aI384
aI89
aI252
aI356
aI346
aI191
aI177
aI134
aI169
aI620
aI267
aI79
aI133
aI160
aI353
aI323
aI318
aI292
aI85
aI591
aI344
aI182
aI163
aI161
aI168
aI77
aI169
aI518
aI285
aI290
aI364
aI86
aI149
aI166
aI307
aI290
aI168
aI168
aI336
aI141
aI190
aI89
aI166
aI88
aI4
aI366
aI327
aI609
aI322
aI93
aI276
aI186
aI78
aI75
aI200
aI164
aI370
aI336
aI292
aI162
aI162
aI4
aI34
aI292
aI179
aI142
aI331
aI351
aI166
aI164
aI160
aI591
aI346
aI156
aI167
aI362
aI79
aI89
aI160
aI276
aI157
aI269
aI81
aI286
aI370
aI334
aI144
aI341
aI579
aI357
aI193
aI87
aI140
aI317
aI310
aI354
aI187
aI188
aI239
aI83
aI351
aI525
aI255
aI343
aI168
aI156
aI101
aI171
aI390
aI38
aI86
aI343
aI324
aI170
aI241
aI34
aI158
aI181
aI190
aI89
aI172
aI323
aI72
aI308
aI97
aI168
aI310
aI648
aI364
aI158
aI41
aI338
aI184
aI122
aI339
aI397
aI326
aI161
aI178
aI372
aI83
aI319
aI298
aI315
aI168
aI188
aI598
aI180
aI182
aI79
aI330
aI1129
aI335
aI179
aI201
aI174
aI288
aI83
aI37
aI192
aI382
aI579
aI679
aI576
aI166
aI76
aI257
aI334
aI342
aI76
aI181
aI94
aI85
aI154
aI389
aI130
aI192
aI527
aI180
aI182
aI178
aI76
aI71
aI323
aI337
aI371
aI90
aI165
aI161
aI340
aI43
aI360
aI740
aI86
aI201
aI145
aI269
aI89
aI155
aI316
aI144
aI325
aI389
aI179
aI166
aI75
aI151
aI239
aI176
aI77
aI267
aI155
aI163
aI623
aI89
aI38
aI172
aI341
aI343
aI15
aI190
aI319
aI164
aI184
aI59
aI165
aI86
aI76
aI163
aI364
aI173
aI172
aI330
aI149
aI386
aI161
aI82
aI321
aI359
aI88
aI537
aI164
aI594
aI159
aI186
aI410
aI160
aI140
aI590
aI171
aI314
aI331
aI75
aI279
aI277
aI736
aI174
aI183
aI279
aI344
aI145
aI180
aI153
aI267
aI1
aI559
aI329
aI329
aI170
aI153
aI305
aI380
aI339
aI170
aI178
aI171
aI80
aI162
aI36
aI321
aI168
aI77
aI180
aI169
aI1059
aI349
aI833
aI321
aI133
aI168
aI344
aI188
aI334
aI39
aI32
aI153
aI148
aI302
aI191
aI187
aI247
aI293
aI159
aI82
aI671
aI377
aI195
aI410
aI703
aI136
aI161
aI93
aI865
aI85
aI155
aI270
aI415
aI376
aI168
aI263
aI301
aI259
aI676
aI172
aI186
aI409
aI393
aI172
aI194
aI278
aI512
aI545
aI327
aI340
aI179
aI443
aI322
aI176
aI196
aI397
aI12
aI166
aI193
aI610
aI277
aI666
aI275
aI335
aI149
aI167
aI173
aI501
aI243
aI170
aI182
aI281
aI326
aI388
aI429
aI380
aI207
aI179
aI354
aI158
aI315
aI168
aI185
aI273
aI134
aI90
aI341
aI1360
aI177
aI266
aI174
aI245
aI328
aI614
aI332
aI330
aI540
aI322
aI152
aI317
aI174
aI83
aI79
aI417
aI142
aI344
aI339
aI40
aI533
aI285
aI177
aI269
aI38
aI261
aI370
aI183
aI71
aI362
aI90
aI309
aI182
aI369
aI356
aI578
aI87
aI166
aI250
aI404
aI76
aI164
aI407
aI614
aI193
aI640
aI167
aI180
aI330
aI76
aI330
aI157
aI173
aI291
aI375
aI437
aI893
aI154
aI81
aI257
aI168
aI145
aI174
aI349
aI351
aI568
aI83
aI78
aI200
aI35
aI14
aI272
aI346
aI191
aI1304
aI181
aI169
aI75
aI365
aI94
aI173
aI365
aI32
aI82
aI41
aI121
aI268
aI347
aI271
aI175
aI94
aI181
aI164
aI173
aI198
aI372
aI290
aI342
aI85
aI179
aI74
aI377
aI161
aI153
aI710
aI358
aI164
aI159
aI88
aI156
aI157
aI254
aI347
aI143
aI366
aI174
aI344
aI635
aI41
aI354
aI409
aI154
aI197
aI187
aI192
aI163
aI163
aI297
aI301
aI353
aI266
aI174
aI391
aI632
aI320
aI346
aI80
aI111
aI202
aI185
aI262
aI171
aI34
aI170
aI91
aI629
aI273
aI531
aI177
aI327
aI166
aI16
aI313
aI334
aI254
aI278
aI360
aI158
aI148
aI172
aI93
aI35
aI280
aI563
aI86
aI326
aI183
aI416
aI153
aI391
aI319
aI316
aI310
aI253
aI38
aI332
aI522
aI162
aI687
aI178
aI168
aI187
aI281
aI170
aI362
aI145
aI180
aI157
aI321
aI736
aI327
aI316
aI279
aI37
aI187
aI82
aI1029
aI345
aI285
aI172
aI169
aI251
aI376
aI90
aI687
aI143
aI337
aI14
aI370
aI415
aI324
aI14
aI167
aI166
aI85
aI141
aI170
aI623
aI174
aI174
aI35
aI43
aI153
aI175
aI167
aI610
aI257
aI183
aI78
aa(lp24
I189
aI325
aI363
aI170
aI323
aI190
aI347
aI257
aI359
aI185
aI572
aI82
aI147
aI76
aI36
aI194
aI299
aI166
aI317
aI165
aI167
aI84
aI82
aI87
aI78
aI156
aI187
aI146
aI149
aI363
aI385
aI170
aI158
aI577
aI339
aI74
aI340
aI82
aI259
aI73
aI159
aI337
aI82
aI343
aI310
aI160
aI366
aI43
aI173
aI185
aI167
aI185
aI253
aI159
aI145
aI310
aI342
aI44
aI309
aI168
aI171
aI259
aI365
aI82
aI343
aI360
aI294
aI331
aI131
aI87
aI354
aI83
aI81
aI162
aI368
aI375
aI344
aI89
aI162
aI158
aI161
aI564
aI75
aI85
aI390
aI182
aI175
aI175
aI87
aI168
aI73
aI339
aI78
aI88
aI359
aI247
aI167
aI524
aI161
aI418
aI156
aI85
aI327
aI367
aI1
aI362
aI382
aI578
aI174
aI391
aI13
aI301
aI420
aI160
aI165
aI324
aI612
aI554
aI310
aI334
aI198
aI200
aI299
aI135
aI82
aI67
aI510
aI175
aI285
aI179
aI317
aI544
aI360
aI177
aI161
aI77
aI288
aI164
aI323
aI93
aI186
aI187
aI337
aI327
aI182
aI153
aI78
aI189
aI273
aI2
aI670
aI182
aI333
aI171
aI40
aI162
aI82
aI607
aI320
aI85
aI163
aI87
aI79
aI151
aI1233
aI320
aI279
aI171
aI693
aI180
aI332
aI168
aI159
aI255
aI177
aI184
aI166
aI77
aI184
aI318
aI156
aI168
aI288
aI159
aI259
aI299
aI588
aI338
aI80
aI325
aI390
aI311
aI188
aI142
aI281
aI181
aI369
aI252
aI77
aI363
aI349
aI158
aI164
aI169
aI258
aI167
aI160
aI568
aI161
aI583
aI363
aI181
aI335
aI167
aI4
aI168
aI180
aI313
aI163
aI163
aI320
aI84
aI176
aI341
aI618
aI261
aI1253
aI169
aI339
aI193
aI271
aI532
aI355
aI185
aI329
aI255
aI270
aI704
aI165
aI181
aI305
aI354
aI389
aI368
aI313
aI161
aI176
aI269
aI532
aI595
aI142
aI365
aI657
aI4
aI173
aI3482
aI173
aI239
aI348
aI94
aI278
aI15
aI176
aI189
aI183
aI174
aI180
aI164
aI154
aI171
aI158
aI161
aI288
aI586
aI180
aI343
aI172
aI91
aI160
aI160
aI421
aI185
aI346
aI84
aI181
aI167
aI35
aI161
aI84
aI371
aI551
aI321
aI247
aI185
aI181
aI355
aI183
aI306
aI149
aI150
aI709
aI83
aI522
aI298
aI289
aI392
aI166
aI252
aI1394
aI83
aI385
aI42
aI344
aI159
aI165
aI602
aI275
aI851
aI330
aI43
aI35
aI154
aI163
aI174
aI83
aI178
aI85
aI337
aI707
aI81
aI358
aI247
aI172
aI166
aI626
aI88
aI80
aI186
aI152
aI84
aI254
aI253
aI166
aI180
aI560
aI371
aI180
aI75
aI169
aI80
aI138
aI155
aI305
aI290
aI172
aI553
aI661
aI167
aI345
aI296
aI151
aI330
aI352
aI153
aI572
aI638
aI167
aI179
aI91
aI161
aI157
aI314
aI95
aI385
aI87
aI537
aI387
aI37
aI323
aI554
aI355
aI151
aI255
aI70
aI184
aI306
aI551
aI300
aI87
aI2
aI182
aI86
aI158
aI161
aI301
aI412
aI87
aI322
aI4
aI169
aI79
aI351
aI574
aI186
aI189
aI170
aI169
aI327
aI188
aI14
aI339
aI631
aI343
aI190
aI178
aI179
aI84
aI328
aI356
aI15
aI340
aI142
aI345
aI159
aI84
aI165
aI162
aI150
aI420
aI166
aI158
aI156
aI170
aI582
aI144
aI38
aI138
aI186
aI346
aI188
aI143
aI310
aI279
aI174
aI84
aI164
aI333
aI311
aI380
aI77
aI75
aI319
aI154
aI342
aI145
aI300
aI139
aI578
aI166
aI77
aI334
aI278
aI180
aI338
aI282
aI339
aI83
aI168
aI306
aI320
aI186
aI198
aI83
aI263
aI155
aI406
aI366
aI326
aI781
aI179
aI1274
aI360
aI157
aI153
aI257
aI301
aI325
aI174
aI599
aI346
aI174
aI356
aI714
aI175
aI324
aI206
aI1118
aI38
aI74
aI275
aI37
aI341
aI274
aI309
aI317
aI578
aI353
aI169
aI194
aI378
aI38
aI151
aI335
aI38
aI112
aI264
aI164
aI327
aI537
aI362
aI385
aI128
aI171
aI14
aI665
aI135
aI183
aI276
aI627
aI295
aI316
aI294
aI346
aI124
aI327
aI84
aI93
aI158
aI81
aI163
aI165
aI346
aI72
aI182
aI397
aI37
aI320
aI161
aI74
aI163
aI347
aI80
aI89
aI184
aI186
aI69
aI342
aI175
aI606
aI197
aI556
aI951
aI162
aI172
aI191
aI76
aI89
aI83
aI78
aI316
aI275
aI171
aI200
aI395
aI314
aI89
aI411
aI346
aI236
aI86
aI79
aI614
aI75
aI194
aI170
aI84
aI180
aI77
aI155
aI178
aI318
aI551
aI86
aI94
aI330
aI256
aI72
aI336
aI332
aI91
aI149
aI186
aI173
aI43
aI347
aI172
aI564
aI270
aI688
aI151
aI1422
aI176
aI181
aI541
aI164
aI316
aI164
aI86
aI43
aI168
aI83
aI78
aI375
aI376
aI639
aI78
aI280
aI352
aI71
aI78
aI257
aI173
aI80
aI1038
aI324
aI379
aI387
aI614
aI292
aI376
aI370
aI151
aI258
aI152
aI353
aI524
aI280
aI173
aI285
aI154
aI320
aI184
aI341
aI280
aI172
aI324
aI166
aI176
aI72
aI189
aI347
aI180
aI285
aI156
aI166
aI326
aI152
aI568
aI71
aI170
aI244
aI1550
aI414
aI309
aI76
aI876
aI39
aI587
aI317
aI152
aI226
aI183
aI353
aI203
aI336
aI293
aI2
aI163
aI94
aI180
aI363
aI603
aI74
aI87
aI18
aI292
aI320
aI173
aI315
aI330
aI674
aI358
aI89
aI334
aI329
aI75
aI74
aI319
aI136
aI336
aI584
aI499
aI161
aI375
aI145
aI164
aI188
aI158
aI37
aI269
aI166
aI165
aI274
aI315
aI164
aI151
aI170
aI197
aI155
aI350
aI595
aI729
aI199
aI343
aI154
aI170
aI167
aI160
aI598
aI527
aI348
aI320
aI195
aI168
aI172
aI145
aI82
aI579
aI318
aI368
aI163
aI352
aI148
aI345
aI198
aI255
aI154
aI157
aI288
aI161
aI173
aI86
aI310
aI174
aI167
aI302
aI625
aI1232
aI281
aI1241
aI338
aI144
aI192
aI572
aI138
aI559
aI180
aI316
aI329
aI341
aI297
aI160
aI180
aI43
aI495
aI57
aI80
aI152
aI279
aI87
aI94
aI342
aI329
aI159
aI350
aI267
aI333
aI163
aI356
aI603
aI187
aI153
aI86
aI165
aI45
aI375
aI297
aI258
aI297
aI87
aI557
aI531
aI166
aI155
aI162
aI166
aI77
aI1306
aI148
aI304
aI161
aI184
aI158
aI332
aI290
aI337
aI555
aI176
aI169
aI362
aI206
aI173
aI360
aI306
aI42
aI274
aI417
aI555
aI167
aI315
aI71
aI362
aI177
aI396
aI155
aI168
aI90
aI162
aI125
aI156
aI187
aI156
aI185
aI156
aI179
aI294
aI147
aI180
aI196
aI169
aI41
aI249
aI333
aI169
aI77
aI346
aI169
aI166
aI358
aI36
aI471
aI189
aI548
aI15
aI195
aI159
aI617
aI1851
aI298
aI91
aI162
aI327
aI157
aI325
aI177
aI1429
aI243
aI167
aI91
aI77
aI35
aI270
aI324
aI144
aI287
aI157
aI392
aI303
aI364
aI363
aI33
aI377
aI270
aI155
aI243
aI161
aI327
aI134
aI172
aI308
aI330
aI178
aI290
aI320
aI308
aI161
aI741
aI155
aI308
aI79
aI334
aI244
aI171
aI333
aI183
aI300
aI85
aI179
aI171
aI176
aI531
aI175
aI134
aI95
aI75
aI89
aI331
aI177
aI244
aI580
aI268
aI173
aI353
aI298
aI261
aI283
aI139
aI338
aI309
aI321
aI414
aI12
aI704
aI322
aI166
aI348
aI324
aI323
aI154
aI186
aI343
aI163
aI114
aI313
aI1241
aI324
aI74
aI336
aI173
aI163
aI311
aI158
aI177
aI274
aI176
aI161
aI313
aI167
aI155
aI348
aI163
aI428
aI335
aI168
aI158
aI151
aI300
aI344
aI319
aI154
aI616
aI198
aI387
aI83
aI168
aI274
aI179
aI322
aI189
aI173
aa(lp25
I88
aI290
aI336
aI230
aI151
aI341
aI174
aI168
aI157
aI177
aI305
aI298
aI422
aI171
aI151
aI303
aI268
aI174
aI162
aI163
aI352
aI651
aI183
aI174
aI316
aI178
aI157
aI142
aI167
aI325
aI139
aI176
aI623
aI181
aI175
aI649
aI186
aI86
aI351
aI378
aI164
aI194
aI79
aI237
aI174
aI623
aI335
aI74
aI604
aI317
aI255
aI243
aI16
aI567
aI157
aI179
aI57
aI400
aI174
aI83
aI263
aI80
aI235
aI159
aI334
aI157
aI1254
aI258
aI176
aI164
aI82
aI40
aI318
aI407
aI85
aI178
aI472
aI304
aI175
aI381
aI41
aI85
aI164
aI285
aI16
aI275
aI168
aI392
aI80
aI188
aI148
aI318
aI309
aI41
aI304
aI165
aI358
aI167
aI201
aI266
aI176
aI166
aI177
aI177
aI156
aI176
aI346
aI379
aI332
aI334
aI178
aI520
aI178
aI36
aI271
aI356
aI287
aI299
aI132
aI164
aI185
aI178
aI161
aI305
aI154
aI279
aI301
aI137
aI263
aI282
aI87
aI41
aI169
aI333
aI355
aI330
aI288
aI508
aI180
aI177
aI160
aI332
aI257
aI175
aI149
aI546
aI261
aI158
aI589
aI859
aI251
aI172
aI168
aI573
aI165
aI159
aI267
aI273
aI175
aI158
aI175
aI350
aI186
aI327
aI280
aI180
aI322
aI322
aI332
aI285
aI296
aI402
aI257
aI35
aI90
aI154
aI256
aI94
aI163
aI94
aI151
aI373
aI258
aI330
aI152
aI2
aI334
aI161
aI74
aI333
aI75
aI246
aI317
aI366
aI171
aI157
aI74
aI150
aI324
aI334
aI167
aI355
aI264
aI170
aI182
aI158
aI393
aI361
aI125
aI79
aI348
aI159
aI168
aI163
aI147
aI153
aI631
aI163
aI168
aI164
aI332
aI87
aI157
aI269
aI319
aI97
aI255
aI325
aI327
aI328
aI322
aI171
aI75
aI343
aI282
aI304
aI309
aI175
aI337
aI72
aI188
aI314
aI312
aI178
aI156
aI343
aI338
aI407
aI848
aI163
aI601
aI287
aI273
aI355
aI163
aI310
aI330
aI191
aI158
aI377
aI183
aI68
aI327
aI156
aI163
aI165
aI85
aI187
aI155
aI595
aI87
aI154
aI85
aI160
aI327
aI75
aI159
aI162
aI331
aI254
aI131
aI89
aI334
aI80
aI268
aI549
aI82
aI82
aI169
aI618
aI194
aI354
aI167
aI303
aI153
aI151
aI340
aI44
aI140
aI167
aI160
aI312
aI261
aI179
aI171
aI72
aI94
aI95
aI339
aI162
aI162
aI483
aI1220
aI314
aI373
aI319
aI344
aI177
aI347
aI127
aI167
aI330
aI364
aI94
aI148
aI165
aI526
aI147
aI177
aI351
aI333
aI358
aI322
aI95
aI175
aI162
aI336
aI378
aI404
aI139
aI312
aI159
aI179
aI384
aI36
aI387
aI303
aI339
aI73
aI151
aI169
aI14
aI189
aI76
aI351
aI1019
aI558
aI308
aI324
aI150
aI384
aI285
aI123
aI313
aI130
aI316
aI36
aI589
aI296
aI36
aI252
aI150
aI334
aI353
aI167
aI282
aI180
aI151
aI278
aI257
aI333
aI146
aI323
aI176
aI317
aI339
aI169
aI147
aI88
aI327
aI174
aI80
aI272
aI168
aI149
aI80
aI321
aI362
aI339
aI155
aI163
aI247
aI176
aI128
aI35
aI242
aI255
aI147
aI381
aI142
aI332
aI176
aI561
aI156
aI309
aI131
aI82
aI38
aI32
aI39
aI200
aI335
aI192
aI312
aI263
aI752
aI179
aI635
aI124
aI186
aI193
aI328
aI354
aI181
aI675
aI159
aI163
aI167
aI322
aI549
aI146
aI340
aI165
aI263
aI373
aI177
aI145
aI89
aI328
aI73
aI89
aI157
aI334
aI185
aI300
aI176
aI299
aI593
aI308
aI525
aI318
aI160
aI320
aI39
aI33
aI332
aI131
aI88
aI310
aI355
aI160
aI294
aI93
aI159
aI84
aI170
aI376
aI155
aI123
aI263
aI399
aI331
aI284
aI171
aI155
aI300
aI262
aI309
aI197
aI282
aI283
aI92
aI143
aI168
aI174
aI159
aI169
aI266
aI158
aI320
aI568
aI357
aI255
aI140
aI334
aI167
aI445
aI160
aI881
aI326
aI183
aI157
aI344
aI188
aI171
aI189
aI366
aI78
aI345
aI298
aI82
aI80
aI324
aI405
aI171
aI150
aI174
aI92
aI354
aI40
aI153
aI299
aI307
aI38
aI89
aI252
aI169
aI329
aI308
aI336
aI305
aI326
aI158
aI338
aI379
aI92
aI400
aI73
aI169
aI610
aI316
aI315
aI300
aI258
aI155
aI87
aI187
aI579
aI149
aI349
aI166
aI329
aI348
aI82
aI186
aI327
aI187
aI345
aI362
aI169
aI145
aI306
aI83
aI560
aI175
aI271
aI85
aI166
aI168
aI192
aI202
aI159
aI567
aI181
aI151
aI80
aI151
aI177
aI176
aI172
aI88
aI339
aI345
aI264
aI176
aI266
aI277
aI80
aI349
aI325
aI170
aI657
aI241
aI172
aI170
aI271
aI636
aI38
aI683
aI392
aI186
aI167
aI75
aI501
aI364
aI265
aI41
aI88
aI243
aI725
aI636
aI358
aI162
aI155
aI360
aI346
aI172
aI304
aI310
aI37
aI160
aI552
aI304
aI146
aI325
aI578
aI645
aI246
aI403
aI76
aI158
aI198
aI87
aI513
aI198
aI176
aI257
aI35
aI542
aI516
aI295
aI151
aI328
aI152
aI178
aI397
aI73
aI492
aI525
aI339
aI184
aI161
aI160
aI341
aI316
aI365
aI177
aI580
aI335
aI169
aI315
aI263
aI314
aI318
aI315
aI153
aI173
aI342
aI397
aI147
aI15
aI314
aI320
aI517
aI144
aI364
aI40
aI133
aI280
aI128
aI165
aI298
aI174
aI158
aI168
aI335
aI330
aI364
aI288
aI286
aI328
aI288
aI257
aI312
aI175
aI181
aI164
aI337
aI342
aI290
aI164
aI260
aI151
aI343
aI335
aI152
aI1670
aI86
aI164
aI325
aI172
aI94
aI383
aI254
aI268
aI170
aI343
aI160
aI169
aI251
aI37
aI166
aI382
aI180
aI285
aI167
aI193
aI183
aI295
aI170
aI160
aI408
aI34
aI179
aI340
aI168
aI346
aI148
aI378
aI665
aI293
aI445
aI519
aI357
aI289
aI164
aI84
aI170
aI198
aI337
aI342
aI347
aI286
aI43
aI266
aI73
aI89
aI83
aI330
aI309
aI185
aI163
aI169
aI162
aI87
aI177
aI178
aI149
aI175
aI81
aI163
aI319
aI274
aI314
aI86
aI163
aI156
aI148
aI342
aI166
aI158
aI250
aI140
aI335
aI322
aI406
aI242
aI159
aI322
aI280
aI328
aI171
aI234
aI400
aI1796
aI303
aI93
aI159
aI164
aI164
aI78
aI254
aI163
aI1118
aI259
aI157
aI182
aI163
aI164
aI162
aI292
aI72
aI284
aI81
aI258
aI177
aI156
aI380
aI318
aI1
aI558
aI551
aI383
aI157
aI152
aI348
aI356
aI184
aI148
aI319
aI335
aI158
aI176
aI376
aI81
aI361
aI149
aI141
aI66
aI370
aI77
aI308
aI166
aI171
aI165
aI329
aI560
aI40
aI184
aI543
aI305
aI314
aI595
aI284
aI590
aI173
aI627
aI273
aI149
aI189
aI144
aI284
aI373
aI167
aI558
aI258
aI145
aI303
aI305
aI192
aI313
aI154
aI187
aI83
aI382
aI321
aI588
aI173
aI396
aI170
aI334
aI367
aI177
aI340
aI81
aI151
aI163
aI314
aI336
aI423
aI180
aI181
aI191
aI183
aI428
aI266
aI152
aI88
aI181
aI146
aI171
aI88
aI333
aI247
aI178
aI264
aI593
aI80
aI323
aI161
aI309
aI629
aI145
aI368
aI148
aI82
aI76
aI175
aI78
aI334
aI364
aI332
aI181
aI309
aI291
aI41
aI138
aI343
aI176
aI326
aI319
aI517
aI184
aI160
aI592
aI372
aI1
aI336
aI351
aI81
aI298
aI170
aI260
aI552
aI340
aI376
aI292
aI237
aI168
aI169
aI538
aI143
aI392
aI336
aI176
aI4
aI356
aI566
aI160
aI171
aI341
aI182
aI79
aI166
aI339
aI338
aI318
aI302
aI42
aI543
aI179
aI280
aI240
aI295
aI179
aI78
aI161
aI161
aI348
aI575
aI356
aI178
aI162
aI1212
aI292
aI351
aI315
aI307
aI324
aI180
aa(lp26
I155
aI334
aI79
aI124
aI156
aI278
aI333
aI185
aI15
aI151
aI174
aI299
aI318
aI164
aI186
aI188
aI325
aI182
aI165
aI83
aI174
aI166
aI176
aI169
aI204
aI171
aI75
aI162
aI502
aI164
aI174
aI503
aI168
aI80
aI172
aI144
aI177
aI329
aI34
aI334
aI159
aI484
aI283
aI323
aI14
aI341
aI169
aI37
aI567
aI140
aI282
aI152
aI41
aI190
aI163
aI153
aI304
aI143
aI159
aI396
aI307
aI141
aI161
aI332
aI327
aI163
aI153
aI305
aI154
aI373
aI168
aI91
aI173
aI417
aI309
aI248
aI308
aI49
aI81
aI381
aI161
aI141
aI540
aI317
aI164
aI281
aI164
aI16
aI379
aI157
aI306
aI164
aI168
aI360
aI32
aI175
aI162
aI162
aI187
aI315
aI141
aI167
aI148
aI345
aI131
aI159
aI317
aI377
aI318
aI659
aI329
aI138
aI335
aI281
aI327
aI351
aI367
aI146
aI299
aI261
aI491
aI144
aI297
aI181
aI36
aI39
aI292
aI309
aI82
aI148
aI504
aI177
aI79
aI2
aI165
aI177
aI158
aI79
aI266
aI129
aI357
aI609
aI70
aI1230
aI581
aI666
aI299
aI322
aI167
aI153
aI304
aI156
aI76
aI185
aI264
aI314
aI522
aI188
aI156
aI85
aI399
aI365
aI312
aI304
aI94
aI321
aI391
aI172
aI178
aI250
aI309
aI582
aI580
aI42
aI163
aI147
aI345
aI478
aI164
aI539
aI319
aI303
aI270
aI16
aI168
aI573
aI391
aI332
aI3132
aI314
aI273
aI331
aI154
aI301
aI81
aI344
aI183
aI77
aI154
aI147
aI299
aI172
aI367
aI36
aI171
aI253
aI91
aI149
aI389
aI164
aI321
aI346
aI348
aI284
aI311
aI169
aI193
aI326
aI314
aI805
aI246
aI91
aI88
aI280
aI181
aI74
aI188
aI341
aI182
aI384
aI572
aI303
aI154
aI143
aI175
aI356
aI539
aI86
aI354
aI189
aI153
aI242
aI119
aI299
aI159
aI343
aI166
aI156
aI626
aI369
aI33
aI189
aI33
aI200
aI399
aI330
aI327
aI34
aI162
aI142
aI82
aI43
aI190
aI546
aI160
aI157
aI172
aI667
aI117
aI174
aI160
aI328
aI321
aI174
aI209
aI74
aI153
aI79
aI169
aI41
aI173
aI330
aI145
aI267
aI170
aI310
aI572
aI75
aI255
aI499
aI183
aI266
aI330
aI556
aI291
aI92
aI143
aI278
aI336
aI387
aI162
aI179
aI284
aI87
aI156
aI350
aI150
aI80
aI167
aI160
aI152
aI169
aI307
aI13
aI324
aI266
aI167
aI141
aI253
aI319
aI614
aI89
aI280
aI171
aI394
aI158
aI189
aI152
aI39
aI267
aI170
aI141
aI246
aI162
aI187
aI308
aI151
aI81
aI292
aI347
aI392
aI323
aI923
aI184
aI311
aI71
aI128
aI364
aI154
aI90
aI169
aI70
aI81
aI361
aI163
aI256
aI76
aI369
aI330
aI187
aI178
aI310
aI82
aI308
aI170
aI153
aI85
aI519
aI337
aI348
aI343
aI292
aI312
aI85
aI370
aI172
aI77
aI75
aI169
aI156
aI324
aI319
aI261
aI166
aI77
aI1145
aI172
aI131
aI549
aI170
aI359
aI314
aI766
aI160
aI147
aI347
aI37
aI188
aI310
aI163
aI77
aI13
aI162
aI294
aI593
aI146
aI308
aI170
aI172
aI255
aI163
aI174
aI175
aI170
aI179
aI187
aI389
aI123
aI391
aI93
aI156
aI327
aI164
aI350
aI15
aI180
aI284
aI149
aI192
aI306
aI156
aI328
aI445
aI332
aI284
aI16
aI42
aI352
aI37
aI133
aI305
aI358
aI365
aI169
aI161
aI534
aI152
aI171
aI168
aI320
aI258
aI318
aI149
aI158
aI170
aI146
aI183
aI542
aI4
aI196
aI177
aI244
aI156
aI40
aI365
aI284
aI81
aI288
aI188
aI368
aI180
aI340
aI169
aI600
aI86
aI329
aI320
aI176
aI344
aI11
aI154
aI281
aI164
aI65
aI145
aI370
aI361
aI316
aI168
aI314
aI172
aI48
aI183
aI157
aI341
aI169
aI723
aI148
aI309
aI73
aI192
aI167
aI184
aI168
aI535
aI168
aI169
aI172
aI128
aI157
aI324
aI286
aI171
aI154
aI199
aI342
aI535
aI189
aI14
aI272
aI95
aI162
aI195
aI194
aI38
aI154
aI168
aI150
aI85
aI146
aI250
aI33
aI336
aI174
aI187
aI166
aI362
aI145
aI127
aI80
aI280
aI82
aI327
aI35
aI79
aI176
aI190
aI149
aI73
aI111
aI162
aI177
aI161
aI358
aI204
aI356
aI365
aI38
aI173
aI862
aI546
aI186
aI342
aI80
aI187
aI590
aI94
aI180
aI148
aI278
aI167
aI308
aI171
aI530
aI4
aI1136
aI197
aI182
aI161
aI153
aI329
aI350
aI334
aI34
aI182
aI318
aI156
aI161
aI163
aI389
aI142
aI162
aI175
aI85
aI81
aI519
aI171
aI173
aI148
aI77
aI171
aI85
aI181
aI299
aI589
aI69
aI291
aI158
aI34
aI12
aI152
aI180
aI569
aI160
aI185
aI166
aI165
aI187
aI172
aI153
aI351
aI79
aI72
aI148
aI145
aI384
aI38
aI334
aI263
aI500
aI618
aI144
aI86
aI246
aI163
aI549
aI69
aI533
aI291
aI183
aI147
aI182
aI351
aI80
aI152
aI169
aI169
aI124
aI291
aI338
aI293
aI374
aI295
aI256
aI67
aI164
aI163
aI191
aI151
aI164
aI189
aI348
aI263
aI280
aI176
aI156
aI385
aI170
aI170
aI163
aI315
aI340
aI161
aI534
aI354
aI297
aI167
aI357
aI285
aI267
aI151
aI166
aI317
aI159
aI178
aI798
aI169
aI174
aI317
aI294
aI168
aI329
aI85
aI154
aI186
aI15
aI306
aI154
aI14
aI329
aI377
aI177
aI190
aI282
aI37
aI173
aI134
aI88
aI176
aI255
aI291
aI158
aI381
aI338
aI372
aI83
aI169
aI190
aI146
aI172
aI89
aI283
aI168
aI168
aI160
aI606
aI583
aI183
aI160
aI146
aI80
aI38
aI311
aI335
aI365
aI171
aI258
aI362
aI380
aI523
aI157
aI159
aI38
aI141
aI162
aI39
aI284
aI89
aI167
aI322
aI194
aI162
aI536
aI101
aI349
aI316
aI83
aI288
aI548
aI345
aI157
aI333
aI260
aI162
aI187
aI1
aI569
aI385
aI179
aI163
aI81
aI376
aI42
aI327
aI153
aI251
aI593
aI165
aI579
aI307
aI166
aI78
aI186
aI368
aI320
aI377
aI39
aI392
aI297
aI72
aI177
aI175
aI37
aI199
aI167
aI505
aI183
aI162
aI311
aI133
aI171
aI167
aI196
aI159
aI181
aI187
aI159
aI41
aI316
aI35
aI158
aI69
aI146
aI154
aI160
aI170
aI37
aI330
aI166
aI352
aI204
aI154
aI636
aI337
aI407
aI183
aI151
aI337
aI161
aI40
aI81
aI162
aI319
aI331
aI158
aI337
aI309
aI157
aI299
aI993
aI324
aI578
aI329
aI350
aI167
aI163
aI342
aI153
aI76
aI328
aI173
aI400
aI334
aI269
aI178
aI156
aI177
aI806
aI335
aI289
aI142
aI72
aI333
aI569
aI172
aI157
aI161
aI42
aI157
aI526
aI577
aI156
aI157
aI83
aI172
aI177
aI525
aI178
aI301
aI183
aI564
aI75
aI172
aI174
aI14
aI80
aI81
aI159
aI197
aI85
aI323
aI335
aI278
aI337
aI295
aI86
aI155
aI41
aI145
aI541
aI265
aI163
aI385
aI80
aI283
aI156
aI309
aI167
aI168
aI135
aI323
aI178
aI283
aI511
aI169
aI316
aI308
aI190
aI33
aI321
aI169
aI193
aI163
aI351
aI404
aI282
aI176
aI258
aI153
aI86
aI335
aI151
aI367
aI521
aI173
aI283
aI162
aI325
aI173
aI157
aI166
aI164
aI172
aI335
aI176
aI521
aI164
aI551
aI88
aI335
aI183
aI322
aI332
aI320
aI170
aI1
aI158
aI177
aI184
aI358
aI267
aI162
aI16
aI369
aI150
aI159
aI358
aI330
aI561
aI159
aI302
aI174
aI382
aI491
aI1284
aI160
aI169
aI163
aI88
aI74
aI153
aI161
aI337
aI143
aI125
aI170
aI303
aI94
aI169
aI171
aI190
aI166
aI164
aI153
aI344
aI243
aI83
aI324
aI168
aI176
aa(lp27
I322
aI165
aI162
aI92
aI342
aI607
aI155
aI198
aI575
aI583
aI579
aI160
aI253
aI167
aI385
aI178
aI321
aI269
aI165
aI174
aI300
aI39
aI184
aI275
aI36
aI36
aI298
aI389
aI566
aI87
aI492
aI313
aI146
aI142
aI162
aI74
aI300
aI362
aI329
aI357
aI145
aI154
aI45
aI247
aI185
aI147
aI134
aI276
aI304
aI157
aI395
aI266
aI541
aI176
aI310
aI165
aI165
aI170
aI265
aI312
aI76
aI162
aI77
aI253
aI146
aI36
aI165
aI167
aI166
aI169
aI958
aI360
aI324
aI328
aI339
aI165
aI249
aI341
aI304
aI314
aI291
aI169
aI405
aI336
aI300
aI182
aI181
aI73
aI15
aI139
aI180
aI152
aI82
aI175
aI274
aI131
aI171
aI163
aI185
aI337
aI325
aI151
aI75
aI36
aI162
aI86
aI72
aI65
aI169
aI187
aI515
aI169
aI122
aI158
aI171
aI157
aI344
aI34
aI303
aI344
aI362
aI152
aI167
aI196
aI191
aI172
aI363
aI161
aI80
aI82
aI504
aI163
aI2
aI334
aI353
aI83
aI304
aI131
aI294
aI163
aI176
aI574
aI156
aI151
aI248
aI164
aI85
aI174
aI170
aI162
aI79
aI163
aI70
aI263
aI159
aI272
aI520
aI80
aI155
aI519
aI352
aI162
aI317
aI306
aI384
aI177
aI186
aI79
aI81
aI311
aI38
aI305
aI17
aI291
aI194
aI324
aI81
aI164
aI302
aI367
aI160
aI295
aI238
aI241
aI92
aI157
aI309
aI156
aI191
aI151
aI330
aI151
aI144
aI327
aI165
aI152
aI179
aI543
aI88
aI522
aI37
aI74
aI134
aI157
aI156
aI191
aI552
aI78
aI163
aI157
aI316
aI324
aI153
aI313
aI277
aI210
aI319
aI173
aI349
aI251
aI312
aI311
aI342
aI151
aI298
aI157
aI377
aI251
aI176
aI86
aI334
aI177
aI181
aI335
aI570
aI397
aI177
aI186
aI153
aI322
aI167
aI40
aI96
aI369
aI509
aI528
aI268
aI174
aI408
aI327
aI154
aI73
aI85
aI337
aI79
aI166
aI43
aI317
aI160
aI319
aI251
aI91
aI158
aI166
aI180
aI667
aI294
aI154
aI183
aI144
aI156
aI197
aI193
aI320
aI157
aI188
aI162
aI156
aI805
aI365
aI80
aI267
aI298
aI74
aI179
aI187
aI165
aI198
aI142
aI153
aI278
aI337
aI163
aI310
aI848
aI380
aI77
aI480
aI378
aI302
aI323
aI309
aI311
aI556
aI325
aI265
aI139
aI406
aI519
aI330
aI263
aI382
aI549
aI166
aI281
aI153
aI172
aI349
aI81
aI340
aI264
aI331
aI317
aI172
aI333
aI79
aI84
aI146
aI156
aI334
aI239
aI78
aI273
aI513
aI176
aI533
aI167
aI175
aI89
aI178
aI327
aI163
aI16
aI283
aI342
aI88
aI154
aI318
aI163
aI334
aI322
aI166
aI35
aI86
aI356
aI569
aI384
aI157
aI541
aI180
aI319
aI174
aI340
aI372
aI524
aI357
aI158
aI169
aI138
aI95
aI313
aI319
aI303
aI356
aI561
aI320
aI155
aI162
aI151
aI467
aI559
aI301
aI189
aI138
aI190
aI346
aI87
aI355
aI383
aI85
aI194
aI344
aI172
aI170
aI338
aI192
aI259
aI153
aI95
aI1092
aI198
aI338
aI314
aI148
aI184
aI279
aI124
aI314
aI91
aI284
aI306
aI166
aI320
aI310
aI165
aI176
aI89
aI151
aI151
aI343
aI510
aI326
aI82
aI140
aI176
aI200
aI173
aI338
aI245
aI284
aI148
aI310
aI170
aI165
aI379
aI309
aI154
aI154
aI328
aI186
aI298
aI268
aI1082
aI347
aI299
aI169
aI166
aI166
aI648
aI154
aI41
aI323
aI323
aI500
aI338
aI167
aI531
aI187
aI36
aI323
aI83
aI151
aI633
aI323
aI171
aI100
aI191
aI247
aI715
aI1220
aI256
aI525
aI160
aI142
aI176
aI317
aI97
aI87
aI283
aI155
aI309
aI618
aI77
aI163
aI0
aI74
aI358
aI269
aI157
aI311
aI78
aI347
aI302
aI137
aI258
aI177
aI162
aI120
aI351
aI156
aI182
aI326
aI178
aI140
aI124
aI66
aI83
aI148
aI238
aI75
aI157
aI556
aI313
aI167
aI330
aI304
aI77
aI76
aI346
aI298
aI89
aI165
aI340
aI145
aI159
aI156
aI384
aI194
aI324
aI145
aI388
aI165
aI85
aI315
aI238
aI188
aI176
aI269
aI83
aI160
aI186
aI284
aI193
aI560
aI148
aI72
aI318
aI160
aI122
aI160
aI143
aI278
aI377
aI15
aI152
aI264
aI150
aI171
aI170
aI330
aI166
aI276
aI173
aI178
aI76
aI178
aI83
aI77
aI253
aI172
aI143
aI174
aI156
aI185
aI170
aI92
aI164
aI156
aI299
aI177
aI382
aI278
aI365
aI151
aI278
aI328
aI150
aI86
aI326
aI176
aI36
aI78
aI292
aI320
aI615
aI559
aI330
aI350
aI160
aI393
aI327
aI15
aI295
aI89
aI75
aI743
aI40
aI264
aI571
aI523
aI298
aI136
aI256
aI159
aI366
aI2
aI82
aI309
aI174
aI89
aI82
aI242
aI315
aI80
aI340
aI405
aI168
aI150
aI307
aI534
aI48
aI77
aI160
aI156
aI174
aI329
aI553
aI342
aI300
aI273
aI549
aI366
aI192
aI645
aI149
aI400
aI154
aI252
aI316
aI317
aI482
aI140
aI340
aI85
aI80
aI180
aI140
aI303
aI345
aI313
aI164
aI252
aI299
aI260
aI138
aI167
aI159
aI87
aI155
aI247
aI40
aI91
aI37
aI78
aI323
aI40
aI152
aI313
aI311
aI317
aI344
aI155
aI294
aI193
aI336
aI400
aI572
aI283
aI348
aI75
aI315
aI329
aI91
aI530
aI397
aI147
aI174
aI198
aI300
aI78
aI154
aI171
aI533
aI189
aI294
aI280
aI611
aI198
aI139
aI542
aI253
aI179
aI347
aI169
aI172
aI317
aI15
aI154
aI519
aI183
aI91
aI37
aI351
aI287
aI77
aI80
aI40
aI295
aI275
aI562
aI81
aI80
aI327
aI340
aI187
aI166
aI320
aI689
aI178
aI151
aI598
aI348
aI841
aI170
aI335
aI329
aI326
aI300
aI308
aI77
aI80
aI156
aI155
aI344
aI332
aI115
aI163
aI308
aI351
aI160
aI605
aI320
aI76
aI308
aI334
aI179
aI172
aI147
aI172
aI310
aI558
aI294
aI162
aI250
aI333
aI175
aI316
aI177
aI166
aI296
aI140
aI84
aI146
aI41
aI135
aI248
aI363
aI181
aI277
aI155
aI159
aI273
aI306
aI177
aI152
aI187
aI1156
aI292
aI307
aI554
aI317
aI307
aI165
aI145
aI164
aI182
aI317
aI314
aI166
aI320
aI389
aI267
aI156
aI164
aI560
aI81
aI289
aI158
aI306
aI174
aI82
aI93
aI164
aI168
aI179
aI395
aI679
aI349
aI38
aI634
aI372
aI355
aI302
aI168
aI176
aI259
aI318
aI316
aI152
aI328
aI375
aI307
aI80
aI598
aI264
aI320
aI165
aI514
aI369
aI154
aI539
aI315
aI1253
aI308
aI256
aI193
aI526
aI75
aI189
aI140
aI261
aI350
aI166
aI184
aI321
aI312
aI34
aI154
aI330
aI193
aI78
aI36
aI179
aI339
aI83
aI301
aI268
aI183
aI169
aI159
aI316
aI76
aI154
aI334
aI172
aI257
aI304
aI300
aI187
aI161
aI180
aI86
aI272
aI333
aI159
aI342
aI526
aI532
aI383
aI582
aI194
aI270
aI255
aI240
aI334
aI406
aI325
aI160
aI305
aI86
aI575
aI585
aI87
aI157
aI196
aI314
aI155
aI145
aI1185
aI315
aI321
aI290
aI166
aI195
aI175
aI148
aI43
aI320
aI178
aI351
aI13
aI304
aI158
aI172
aI128
aI184
aI271
aI264
aI253
aI270
aI131
aI291
aI326
aI321
aI166
aI171
aI17
aI162
aI339
aI369
aI155
aI308
aI241
aI327
aI190
aI305
aI323
aI151
aI505
aI408
aI180
aI342
aI365
aI39
aI87
aI550
aI77
aI85
aI305
aI541
aI327
aI341
aI327
aI165
aI320
aI329
aI80
aI91
aI230
aI317
aI275
aI349
aI189
aI149
aI162
aI145
aI87
aI517
aI146
aI302
aI319
aI330
aI359
aI153
aI96
aI135
aI166
aI171
aI156
aI290
aa(lp28
I374
aI40
aI173
aI305
aI466
aI164
aI157
aI247
aI309
aI171
aI158
aI199
aI171
aI170
aI93
aI76
aI92
aI189
aI269
aI85
aI311
aI146
aI183
aI168
aI78
aI84
aI152
aI174
aI573
aI158
aI170
aI271
aI165
aI88
aI332
aI95
aI267
aI155
aI182
aI323
aI168
aI84
aI291
aI307
aI332
aI330
aI304
aI253
aI311
aI74
aI85
aI42
aI158
aI152
aI207
aI343
aI327
aI155
aI81
aI176
aI157
aI263
aI329
aI162
aI146
aI185
aI318
aI79
aI580
aI312
aI165
aI77
aI540
aI297
aI299
aI0
aI157
aI42
aI179
aI528
aI169
aI711
aI84
aI158
aI298
aI299
aI305
aI173
aI157
aI550
aI291
aI372
aI76
aI86
aI172
aI172
aI149
aI367
aI302
aI292
aI164
aI230
aI139
aI317
aI169
aI303
aI394
aI160
aI321
aI310
aI154
aI186
aI146
aI161
aI154
aI86
aI354
aI153
aI178
aI330
aI329
aI188
aI37
aI157
aI176
aI243
aI83
aI255
aI75
aI173
aI189
aI163
aI352
aI161
aI313
aI158
aI565
aI164
aI165
aI153
aI152
aI130
aI280
aI168
aI36
aI331
aI179
aI316
aI169
aI679
aI730
aI312
aI79
aI168
aI342
aI159
aI95
aI166
aI158
aI185
aI73
aI146
aI170
aI556
aI308
aI184
aI307
aI292
aI174
aI257
aI176
aI346
aI184
aI580
aI90
aI164
aI83
aI148
aI320
aI244
aI325
aI39
aI165
aI176
aI310
aI170
aI332
aI188
aI75
aI169
aI242
aI203
aI71
aI334
aI39
aI157
aI296
aI145
aI331
aI276
aI75
aI355
aI365
aI142
aI331
aI164
aI158
aI83
aI418
aI166
aI368
aI308
aI328
aI160
aI183
aI156
aI331
aI507
aI161
aI159
aI367
aI310
aI185
aI163
aI365
aI536
aI12
aI81
aI39
aI14
aI36
aI193
aI586
aI290
aI346
aI159
aI80
aI348
aI83
aI276
aI161
aI97
aI343
aI164
aI184
aI153
aI176
aI290
aI541
aI192
aI273
aI88
aI557
aI324
aI175
aI177
aI288
aI188
aI165
aI158
aI2
aI40
aI84
aI171
aI271
aI354
aI317
aI163
aI179
aI351
aI42
aI84
aI85
aI87
aI16
aI163
aI80
aI333
aI183
aI151
aI76
aI154
aI337
aI278
aI318
aI91
aI159
aI162
aI85
aI351
aI526
aI282
aI315
aI159
aI94
aI173
aI154
aI564
aI181
aI246
aI201
aI168
aI153
aI604
aI328
aI37
aI82
aI372
aI321
aI518
aI301
aI143
aI314
aI31
aI326
aI325
aI188
aI308
aI156
aI306
aI385
aI310
aI80
aI169
aI178
aI521
aI151
aI188
aI276
aI361
aI339
aI187
aI160
aI159
aI152
aI181
aI305
aI349
aI317
aI137
aI159
aI312
aI59
aI272
aI184
aI526
aI170
aI313
aI167
aI39
aI319
aI225
aI318
aI76
aI167
aI397
aI288
aI314
aI307
aI155
aI165
aI176
aI157
aI551
aI34
aI158
aI575
aI85
aI574
aI316
aI160
aI167
aI178
aI13
aI183
aI322
aI148
aI275
aI167
aI165
aI263
aI375
aI346
aI351
aI307
aI177
aI332
aI87
aI530
aI337
aI338
aI267
aI188
aI39
aI152
aI314
aI318
aI389
aI168
aI163
aI88
aI177
aI2
aI80
aI187
aI310
aI172
aI164
aI79
aI311
aI339
aI268
aI314
aI78
aI300
aI323
aI311
aI319
aI324
aI306
aI185
aI150
aI147
aI164
aI160
aI158
aI164
aI184
aI159
aI172
aI304
aI68
aI204
aI268
aI313
aI174
aI171
aI375
aI76
aI539
aI167
aI182
aI158
aI173
aI164
aI170
aI354
aI340
aI151
aI79
aI181
aI74
aI179
aI284
aI1815
aI186
aI175
aI267
aI338
aI77
aI157
aI176
aI33
aI342
aI181
aI347
aI606
aI132
aI371
aI287
aI144
aI162
aI171
aI316
aI178
aI289
aI146
aI81
aI174
aI89
aI145
aI389
aI165
aI148
aI171
aI392
aI166
aI551
aI347
aI377
aI330
aI161
aI170
aI349
aI131
aI138
aI319
aI308
aI56
aI119
aI135
aI350
aI186
aI177
aI176
aI302
aI288
aI70
aI172
aI192
aI157
aI342
aI601
aI82
aI149
aI254
aI38
aI168
aI302
aI168
aI658
aI174
aI171
aI305
aI160
aI566
aI174
aI91
aI318
aI497
aI184
aI669
aI165
aI163
aI157
aI144
aI177
aI565
aI74
aI163
aI342
aI165
aI582
aI175
aI142
aI152
aI161
aI319
aI37
aI336
aI179
aI180
aI150
aI254
aI310
aI145
aI176
aI194
aI167
aI78
aI148
aI2622
aI298
aI187
aI341
aI307
aI266
aI312
aI157
aI177
aI180
aI36
aI311
aI154
aI152
aI164
aI169
aI265
aI244
aI158
aI270
aI535
aI79
aI343
aI531
aI319
aI132
aI303
aI85
aI66
aI310
aI169
aI332
aI172
aI183
aI187
aI315
aI170
aI309
aI142
aI169
aI155
aI168
aI82
aI157
aI341
aI339
aI173
aI377
aI272
aI158
aI181
aI352
aI336
aI520
aI81
aI86
aI147
aI2
aI363
aI152
aI168
aI610
aI74
aI16
aI39
aI342
aI78
aI558
aI172
aI168
aI237
aI310
aI290
aI327
aI245
aI133
aI156
aI517
aI409
aI237
aI300
aI179
aI182
aI338
aI523
aI200
aI164
aI333
aI154
aI167
aI171
aI130
aI322
aI160
aI169
aI270
aI165
aI12
aI259
aI263
aI92
aI326
aI178
aI162
aI312
aI79
aI75
aI77
aI94
aI86
aI340
aI299
aI40
aI85
aI97
aI175
aI193
aI152
aI191
aI40
aI182
aI301
aI160
aI339
aI180
aI131
aI317
aI80
aI177
aI380
aI318
aI722
aI178
aI159
aI588
aI169
aI332
aI164
aI357
aI143
aI267
aI158
aI84
aI170
aI337
aI320
aI347
aI370
aI72
aI161
aI64
aI173
aI41
aI244
aI332
aI155
aI125
aI286
aI361
aI134
aI158
aI307
aI341
aI321
aI322
aI80
aI177
aI274
aI522
aI306
aI155
aI40
aI323
aI263
aI349
aI129
aI176
aI528
aI81
aI338
aI332
aI181
aI279
aI340
aI287
aI161
aI175
aI92
aI556
aI262
aI171
aI299
aI328
aI176
aI173
aI318
aI291
aI302
aI159
aI154
aI179
aI146
aI338
aI299
aI182
aI283
aI320
aI37
aI257
aI156
aI180
aI170
aI144
aI131
aI84
aI319
aI156
aI171
aI165
aI73
aI187
aI315
aI145
aI162
aI850
aI558
aI544
aI295
aI81
aI328
aI362
aI304
aI95
aI159
aI292
aI312
aI491
aI162
aI296
aI296
aI288
aI348
aI332
aI331
aI186
aI157
aI75
aI158
aI76
aI318
aI173
aI85
aI148
aI191
aI376
aI175
aI77
aI173
aI73
aI315
aI85
aI174
aI162
aI325
aI72
aI39
aI335
aI82
aI167
aI440
aI315
aI88
aI337
aI338
aI153
aI312
aI88
aI263
aI534
aI270
aI171
aI284
aI284
aI203
aI290
aI35
aI186
aI298
aI39
aI311
aI559
aI326
aI309
aI315
aI166
aI311
aI287
aI158
aI179
aI161
aI152
aI171
aI878
aI39
aI279
aI299
aI149
aI353
aI317
aI305
aI148
aI80
aI328
aI311
aI290
aI73
aI547
aI152
aI181
aI258
aI156
aI151
aI535
aI186
aI175
aI91
aI155
aI162
aI78
aI144
aI307
aI75
aI322
aI301
aI350
aI527
aI272
aI624
aI382
aI279
aI348
aI268
aI86
aI161
aI255
aI241
aI270
aI302
aI151
aI155
aI330
aI319
aI86
aI253
aI82
aI173
aI97
aI184
aI169
aI340
aI78
aI128
aI73
aI263
aI302
aI353
aI325
aI80
aI340
aI319
aI78
aI165
aI327
aI1
aI354
aI519
aI87
aI489
aI702
aI321
aI180
aI148
aI94
aI274
aI306
aI146
aI149
aI339
aI320
aI76
aI192
aI292
aI255
aI153
aI319
aI165
aI195
aI338
aI141
aI321
aI322
aI73
aI76
aI67
aI248
aI329
aI257
aI40
aI165
aI534
aI293
aI82
aI165
aI926
aI470
aI151
aI164
aI153
aI292
aI180
aI87
aI37
aI14
aI342
aI82
aI329
aI275
aI183
aI175
aI186
aI336
aI257
aI120
aI164
aI197
aI158
aI179
aI190
aI201
aa(lp29
I171
aI182
aI162
aI160
aI367
aI75
aI324
aI180
aI78
aI233
aI660
aI235
aI293
aI543
aI242
aI152
aI320
aI170
aI343
aI339
aI364
aI664
aI169
aI164
aI510
aI234
aI158
aI312
aI325
aI323
aI178
aI375
aI324
aI152
aI78
aI1210
aI265
aI180
aI74
aI205
aI322
aI174
aI346
aI82
aI43
aI158
aI297
aI320
aI169
aI379
aI259
aI153
aI265
aI178
aI356
aI165
aI158
aI426
aI266
aI179
aI187
aI176
aI613
aI316
aI159
aI303
aI162
aI327
aI74
aI184
aI165
aI146
aI559
aI324
aI79
aI160
aI171
aI170
aI171
aI4
aI477
aI157
aI311
aI143
aI178
aI335
aI536
aI348
aI259
aI264
aI191
aI182
aI161
aI170
aI182
aI71
aI328
aI384
aI265
aI170
aI157
aI264
aI187
aI89
aI89
aI336
aI203
aI255
aI158
aI78
aI81
aI171
aI166
aI311
aI150
aI362
aI260
aI165
aI255
aI533
aI580
aI158
aI191
aI166
aI270
aI140
aI197
aI184
aI284
aI319
aI177
aI132
aI311
aI296
aI310
aI297
aI304
aI272
aI189
aI200
aI82
aI243
aI314
aI162
aI154
aI307
aI184
aI159
aI166
aI181
aI289
aI313
aI548
aI88
aI343
aI82
aI273
aI132
aI78
aI469
aI267
aI162
aI180
aI302
aI313
aI157
aI261
aI254
aI178
aI173
aI289
aI363
aI286
aI312
aI158
aI343
aI156
aI82
aI86
aI162
aI327
aI157
aI142
aI165
aI401
aI308
aI193
aI166
aI79
aI35
aI165
aI345
aI192
aI161
aI164
aI320
aI198
aI224
aI169
aI334
aI549
aI274
aI164
aI185
aI181
aI146
aI164
aI338
aI587
aI170
aI69
aI89
aI291
aI324
aI573
aI277
aI42
aI193
aI308
aI139
aI179
aI171
aI187
aI564
aI310
aI312
aI532
aI160
aI666
aI155
aI360
aI176
aI565
aI156
aI168
aI619
aI237
aI180
aI157
aI254
aI160
aI138
aI264
aI169
aI84
aI566
aI169
aI158
aI155
aI305
aI89
aI147
aI522
aI164
aI92
aI277
aI580
aI303
aI324
aI562
aI80
aI337
aI267
aI268
aI343
aI257
aI91
aI144
aI179
aI186
aI85
aI454
aI1175
aI256
aI331
aI540
aI79
aI188
aI250
aI34
aI554
aI77
aI172
aI992
aI398
aI252
aI310
aI82
aI169
aI165
aI178
aI80
aI160
aI149
aI176
aI578
aI309
aI165
aI323
aI184
aI159
aI171
aI312
aI325
aI143
aI181
aI95
aI155
aI306
aI304
aI177
aI310
aI146
aI334
aI161
aI170
aI283
aI320
aI183
aI328
aI151
aI330
aI301
aI323
aI325
aI89
aI351
aI324
aI173
aI559
aI151
aI286
aI207
aI311
aI287
aI178
aI43
aI322
aI83
aI160
aI155
aI164
aI71
aI1076
aI362
aI469
aI170
aI312
aI333
aI90
aI165
aI166
aI384
aI176
aI184
aI164
aI150
aI179
aI247
aI402
aI74
aI153
aI281
aI88
aI151
aI305
aI294
aI151
aI329
aI276
aI311
aI193
aI726
aI74
aI298
aI136
aI334
aI85
aI85
aI185
aI151
aI121
aI82
aI294
aI332
aI293
aI229
aI173
aI230
aI362
aI156
aI347
aI248
aI549
aI40
aI86
aI331
aI75
aI152
aI167
aI366
aI335
aI156
aI178
aI253
aI159
aI282
aI148
aI339
aI160
aI226
aI188
aI155
aI89
aI74
aI150
aI193
aI266
aI290
aI164
aI320
aI171
aI91
aI344
aI96
aI621
aI176
aI179
aI416
aI356
aI155
aI189
aI301
aI158
aI166
aI80
aI268
aI328
aI145
aI371
aI78
aI148
aI162
aI173
aI189
aI140
aI137
aI174
aI80
aI280
aI168
aI546
aI195
aI291
aI315
aI169
aI532
aI166
aI325
aI173
aI271
aI81
aI257
aI288
aI172
aI156
aI165
aI158
aI189
aI166
aI149
aI320
aI316
aI72
aI178
aI325
aI297
aI347
aI339
aI172
aI79
aI237
aI171
aI164
aI373
aI339
aI477
aI214
aI158
aI540
aI326
aI178
aI572
aI79
aI359
aI330
aI152
aI248
aI160
aI211
aI176
aI160
aI306
aI358
aI470
aI550
aI34
aI181
aI160
aI334
aI182
aI162
aI83
aI168
aI78
aI83
aI172
aI327
aI301
aI138
aI78
aI174
aI39
aI86
aI184
aI78
aI92
aI169
aI180
aI151
aI480
aI168
aI312
aI183
aI311
aI167
aI302
aI393
aI342
aI34
aI170
aI176
aI70
aI347
aI327
aI173
aI333
aI149
aI305
aI77
aI171
aI42
aI338
aI332
aI361
aI179
aI600
aI265
aI350
aI308
aI195
aI169
aI77
aI163
aI331
aI267
aI146
aI252
aI289
aI168
aI329
aI175
aI161
aI158
aI79
aI82
aI162
aI163
aI269
aI299
aI273
aI39
aI331
aI76
aI154
aI302
aI90
aI333
aI172
aI188
aI506
aI312
aI277
aI157
aI281
aI169
aI187
aI319
aI148
aI497
aI64
aI334
aI293
aI154
aI157
aI357
aI335
aI308
aI79
aI157
aI183
aI165
aI70
aI145
aI345
aI146
aI347
aI164
aI317
aI238
aI206
aI343
aI317
aI305
aI35
aI314
aI296
aI79
aI298
aI67
aI339
aI358
aI38
aI347
aI154
aI343
aI38
aI64
aI168
aI385
aI1064
aI40
aI157
aI38
aI162
aI160
aI170
aI165
aI345
aI188
aI166
aI346
aI161
aI292
aI38
aI316
aI191
aI164
aI151
aI323
aI468
aI299
aI42
aI313
aI317
aI341
aI92
aI277
aI330
aI316
aI150
aI172
aI333
aI79
aI277
aI294
aI80
aI190
aI332
aI154
aI161
aI515
aI188
aI268
aI81
aI313
aI262
aI14
aI1181
aI171
aI79
aI81
aI330
aI126
aI338
aI155
aI147
aI313
aI14
aI332
aI383
aI166
aI248
aI159
aI34
aI183
aI154
aI159
aI170
aI196
aI155
aI326
aI303
aI151
aI181
aI281
aI553
aI177
aI138
aI171
aI153
aI187
aI179
aI160
aI303
aI256
aI167
aI278
aI77
aI333
aI196
aI156
aI184
aI305
aI176
aI322
aI312
aI157
aI158
aI169
aI35
aI169
aI265
aI162
aI145
aI171
aI255
aI596
aI286
aI595
aI82
aI309
aI141
aI168
aI261
aI335
aI173
aI157
aI167
aI348
aI172
aI339
aI308
aI149
aI317
aI340
aI86
aI36
aI165
aI262
aI90
aI156
aI74
aI303
aI282
aI75
aI257
aI362
aI154
aI317
aI157
aI155
aI83
aI306
aI366
aI174
aI315
aI161
aI242
aI682
aI83
aI184
aI335
aI185
aI301
aI172
aI174
aI410
aI361
aI88
aI189
aI177
aI38
aI83
aI192
aI545
aI259
aI175
aI259
aI80
aI76
aI649
aI77
aI155
aI815
aI81
aI1133
aI298
aI80
aI160
aI166
aI191
aI40
aI86
aI158
aI623
aI252
aI358
aI311
aI313
aI155
aI293
aI175
aI85
aI160
aI177
aI145
aI199
aI182
aI157
aI283
aI135
aI312
aI157
aI584
aI250
aI313
aI189
aI337
aI79
aI348
aI313
aI178
aI267
aI153
aI82
aI184
aI162
aI346
aI182
aI308
aI517
aI160
aI317
aI243
aI81
aI258
aI170
aI316
aI271
aI254
aI500
aI297
aI186
aI184
aI150
aI145
aI248
aI168
aI182
aI312
aI77
aI252
aI142
aI189
aI148
aI169
aI359
aI167
aI155
aI95
aI154
aI325
aI160
aI249
aI167
aI327
aI160
aI344
aI39
aI152
aI173
aI343
aI164
aI320
aI513
aI75
aI160
aI402
aI147
aI172
aI166
aI182
aI163
aI320
aI159
aI2
aI37
aI73
aI171
aI155
aI365
aI295
aI310
aI78
aI266
aI168
aI86
aI168
aI101
aI319
aI371
aI165
aI79
aI172
aI239
aI351
aI322
aI144
aI354
aI366
aI281
aI346
aI174
aI517
aI89
aI168
aI184
aI167
aI314
aI320
aI356
aI236
aI176
aI158
aI321
aI157
aI389
aI94
aI157
aI166
aI184
aI302
aI342
aI271
aI85
aI154
aI157
aI175
aI175
aI144
aI290
aI176
aI81
aI159
aI90
aI252
aI279
aI546
aI43
aI153
aI163
aI165
aI159
aI297
aI176
aI173
aI77
aI131
aI83
aI39
aI143
aI256
aI323
aI332
aI76
aI165
aI81
aI185
aI67
aa(lp30
I72
aI77
aI293
aI159
aI234
aI163
aI321
aI171
aI177
aI571
aI245
aI76
aI14
aI169
aI166
aI327
aI308
aI311
aI146
aI325
aI162
aI149
aI149
aI156
aI77
aI146
aI176
aI489
aI144
aI312
aI312
aI1100
aI516
aI169
aI241
aI16
aI145
aI170
aI167
aI300
aI80
aI671
aI77
aI80
aI269
aI306
aI152
aI315
aI178
aI84
aI355
aI244
aI159
aI158
aI154
aI310
aI154
aI267
aI31
aI311
aI288
aI311
aI168
aI162
aI154
aI84
aI241
aI299
aI137
aI174
aI161
aI158
aI161
aI165
aI152
aI156
aI70
aI159
aI278
aI160
aI170
aI156
aI174
aI297
aI318
aI329
aI152
aI330
aI258
aI142
aI148
aI184
aI194
aI352
aI533
aI341
aI367
aI243
aI379
aI158
aI182
aI289
aI198
aI242
aI18
aI79
aI163
aI340
aI259
aI407
aI298
aI336
aI281
aI179
aI260
aI175
aI528
aI287
aI174
aI71
aI37
aI74
aI279
aI343
aI330
aI161
aI79
aI274
aI155
aI339
aI142
aI75
aI174
aI159
aI178
aI76
aI270
aI39
aI145
aI553
aI74
aI237
aI532
aI290
aI236
aI310
aI167
aI75
aI318
aI307
aI1
aI173
aI294
aI86
aI330
aI250
aI345
aI36
aI193
aI340
aI323
aI78
aI155
aI89
aI190
aI863
aI174
aI151
aI286
aI87
aI173
aI76
aI243
aI67
aI150
aI161
aI333
aI166
aI485
aI155
aI176
aI477
aI150
aI166
aI81
aI137
aI268
aI320
aI544
aI298
aI1190
aI304
aI134
aI81
aI146
aI164
aI298
aI164
aI80
aI168
aI82
aI31
aI86
aI77
aI163
aI163
aI155
aI293
aI155
aI251
aI324
aI615
aI14
aI292
aI155
aI63
aI314
aI542
aI152
aI161
aI76
aI512
aI197
aI285
aI373
aI155
aI324
aI83
aI149
aI170
aI152
aI240
aI181
aI186
aI264
aI157
aI328
aI311
aI183
aI310
aI149
aI304
aI300
aI90
aI155
aI155
aI164
aI255
aI326
aI259
aI231
aI176
aI87
aI298
aI142
aI174
aI165
aI694
aI76
aI151
aI285
aI166
aI163
aI152
aI174
aI176
aI145
aI149
aI203
aI291
aI244
aI170
aI562
aI345
aI279
aI317
aI324
aI157
aI161
aI324
aI34
aI173
aI179
aI169
aI315
aI498
aI168
aI136
aI295
aI144
aI486
aI163
aI75
aI168
aI255
aI150
aI304
aI293
aI508
aI76
aI89
aI160
aI309
aI283
aI255
aI177
aI175
aI334
aI172
aI167
aI301
aI300
aI155
aI226
aI196
aI306
aI319
aI788
aI131
aI115
aI268
aI227
aI162
aI308
aI154
aI83
aI167
aI321
aI380
aI281
aI84
aI139
aI151
aI154
aI299
aI163
aI139
aI150
aI174
aI150
aI153
aI157
aI286
aI160
aI300
aI154
aI520
aI188
aI152
aI67
aI139
aI148
aI168
aI72
aI290
aI256
aI76
aI295
aI311
aI96
aI182
aI292
aI311
aI520
aI193
aI142
aI281
aI285
aI286
aI297
aI284
aI73
aI79
aI174
aI296
aI243
aI74
aI166
aI289
aI256
aI249
aI288
aI77
aI169
aI160
aI315
aI118
aI182
aI191
aI80
aI150
aI180
aI147
aI347
aI162
aI147
aI178
aI337
aI284
aI324
aI350
aI89
aI141
aI150
aI166
aI354
aI161
aI180
aI258
aI168
aI35
aI325
aI379
aI153
aI166
aI165
aI284
aI313
aI90
aI154
aI159
aI164
aI503
aI161
aI157
aI175
aI283
aI169
aI169
aI146
aI178
aI13
aI289
aI326
aI301
aI91
aI308
aI171
aI499
aI37
aI354
aI175
aI148
aI159
aI196
aI324
aI172
aI188
aI173
aI304
aI152
aI141
aI339
aI304
aI156
aI371
aI168
aI270
aI87
aI272
aI147
aI189
aI155
aI319
aI155
aI671
aI174
aI93
aI73
aI185
aI169
aI582
aI301
aI169
aI159
aI276
aI250
aI533
aI168
aI155
aI163
aI155
aI324
aI358
aI295
aI332
aI315
aI144
aI168
aI157
aI347
aI268
aI324
aI318
aI336
aI171
aI150
aI166
aI303
aI279
aI545
aI506
aI180
aI368
aI324
aI78
aI181
aI315
aI261
aI171
aI141
aI280
aI379
aI509
aI315
aI313
aI304
aI85
aI328
aI148
aI142
aI39
aI303
aI274
aI292
aI84
aI551
aI158
aI150
aI305
aI167
aI143
aI245
aI164
aI352
aI84
aI175
aI36
aI32
aI118
aI304
aI305
aI310
aI301
aI318
aI157
aI151
aI169
aI144
aI173
aI165
aI153
aI152
aI508
aI72
aI272
aI332
aI304
aI183
aI174
aI565
aI304
aI174
aI268
aI318
aI680
aI260
aI189
aI76
aI171
aI346
aI308
aI160
aI239
aI137
aI171
aI161
aI153
aI271
aI165
aI149
aI765
aI180
aI147
aI516
aI265
aI335
aI72
aI167
aI184
aI572
aI331
aI338
aI129
aI350
aI304
aI168
aI305
aI290
aI117
aI362
aI337
aI166
aI164
aI162
aI300
aI35
aI329
aI351
aI338
aI313
aI331
aI72
aI169
aI87
aI160
aI309
aI586
aI341
aI554
aI155
aI177
aI83
aI91
aI168
aI469
aI179
aI531
aI140
aI149
aI158
aI159
aI161
aI340
aI313
aI287
aI81
aI346
aI193
aI306
aI308
aI171
aI171
aI529
aI78
aI323
aI83
aI307
aI168
aI345
aI40
aI175
aI76
aI346
aI14
aI158
aI85
aI181
aI167
aI165
aI335
aI327
aI162
aI187
aI136
aI74
aI15
aI159
aI165
aI276
aI168
aI310
aI244
aI167
aI280
aI334
aI595
aI192
aI324
aI479
aI270
aI275
aI307
aI340
aI317
aI34
aI168
aI315
aI142
aI320
aI348
aI519
aI61
aI146
aI83
aI69
aI89
aI318
aI300
aI530
aI149
aI143
aI166
aI156
aI78
aI299
aI170
aI152
aI172
aI4
aI153
aI150
aI168
aI336
aI300
aI157
aI346
aI171
aI157
aI171
aI15
aI84
aI235
aI142
aI173
aI181
aI316
aI159
aI76
aI349
aI323
aI16
aI78
aI158
aI140
aI74
aI130
aI331
aI162
aI153
aI151
aI76
aI302
aI176
aI80
aI322
aI466
aI156
aI280
aI239
aI534
aI75
aI14
aI309
aI172
aI170
aI153
aI159
aI350
aI164
aI139
aI79
aI162
aI182
aI147
aI325
aI144
aI568
aI89
aI152
aI289
aI288
aI157
aI257
aI162
aI185
aI161
aI177
aI164
aI272
aI305
aI158
aI77
aI13
aI84
aI265
aI158
aI306
aI304
aI151
aI503
aI187
aI322
aI69
aI76
aI321
aI325
aI90
aI82
aI154
aI289
aI319
aI155
aI322
aI120
aI123
aI295
aI72
aI286
aI172
aI498
aI144
aI164
aI323
aI247
aI172
aI160
aI168
aI377
aI298
aI166
aI36
aI181
aI310
aI339
aI153
aI148
aI173
aI253
aI38
aI59
aI317
aI291
aI93
aI86
aI292
aI157
aI164
aI159
aI272
aI150
aI83
aI326
aI334
aI174
aI268
aI177
aI174
aI175
aI239
aI358
aI300
aI75
aI192
aI304
aI531
aI169
aI330
aI290
aI313
aI14
aI242
aI555
aI236
aI305
aI275
aI526
aI231
aI153
aI169
aI35
aI279
aI33
aI170
aI243
aI288
aI283
aI260
aI11
aI291
aI79
aI162
aI89
aI178
aI148
aI256
aI482
aI169
aI337
aI306
aI85
aI16
aI159
aI163
aI302
aI313
aI324
aI335
aI79
aI79
aI164
aI83
aI163
aI37
aI330
aI302
aI81
aI173
aI152
aI1248
aI146
aI343
aI303
aI313
aI173
aI40
aI275
aI242
aI164
aI453
aI296
aI315
aI137
aI173
aI165
aI80
aI67
aI332
aI148
aI147
aI571
aI167
aI151
aI39
aI164
aI177
aI351
aI150
aI161
aI255
aI327
aI261
aI139
aI85
aI129
aI76
aI76
aI359
aI73
aI225
aI165
aI294
aI182
aI82
aI151
aI145
aI170
aI301
aI148
aI60
aI238
aI169
aI176
aI493
aI161
aI163
aI152
aI335
aI212
aI148
aI158
aI329
aI343
aI357
aI315
aI4
aI168
aI325
aI318
aI163
aI262
aI373
aI36
aI160
aI157
aI176
aI78
aI303
aI159
aI171
aI321
aI237
aI570
aI151
aI174
aI174
aI301
aI540
aI157
aI159
aa(lp31
I162
aI159
aI533
aI161
aI323
aI184
aI169
aI247
aI84
aI553
aI160
aI298
aI346
aI682
aI245
aI300
aI177
aI140
aI177
aI390
aI95
aI558
aI255
aI159
aI172
aI36
aI752
aI666
aI158
aI158
aI82
aI304
aI168
aI163
aI167
aI304
aI92
aI155
aI172
aI319
aI298
aI311
aI34
aI43
aI184
aI2
aI310
aI149
aI162
aI167
aI251
aI182
aI134
aI542
aI275
aI280
aI168
aI345
aI249
aI158
aI175
aI78
aI120
aI335
aI154
aI317
aI169
aI288
aI315
aI127
aI157
aI33
aI158
aI152
aI86
aI81
aI279
aI312
aI355
aI170
aI160
aI80
aI159
aI75
aI161
aI531
aI325
aI140
aI38
aI130
aI515
aI158
aI149
aI180
aI237
aI160
aI539
aI81
aI306
aI175
aI501
aI317
aI543
aI152
aI148
aI162
aI168
aI189
aI155
aI505
aI305
aI75
aI177
aI1079
aI317
aI159
aI264
aI516
aI241
aI284
aI72
aI258
aI357
aI324
aI164
aI315
aI473
aI527
aI326
aI273
aI36
aI323
aI138
aI156
aI142
aI177
aI528
aI382
aI173
aI68
aI170
aI146
aI340
aI324
aI34
aI152
aI155
aI156
aI0
aI180
aI177
aI343
aI330
aI64
aI285
aI147
aI1119
aI321
aI81
aI161
aI96
aI175
aI300
aI154
aI267
aI314
aI320
aI264
aI319
aI319
aI169
aI320
aI186
aI337
aI165
aI529
aI300
aI75
aI300
aI75
aI316
aI148
aI288
aI162
aI302
aI156
aI283
aI513
aI152
aI158
aI293
aI549
aI168
aI67
aI330
aI318
aI87
aI508
aI146
aI173
aI440
aI278
aI150
aI136
aI309
aI240
aI83
aI503
aI308
aI78
aI83
aI81
aI155
aI491
aI436
aI302
aI518
aI319
aI87
aI166
aI159
aI251
aI137
aI151
aI559
aI88
aI162
aI491
aI223
aI176
aI393
aI43
aI153
aI72
aI342
aI2
aI283
aI308
aI79
aI153
aI148
aI85
aI173
aI550
aI248
aI342
aI310
aI309
aI293
aI142
aI147
aI335
aI335
aI518
aI291
aI231
aI164
aI313
aI172
aI260
aI590
aI333
aI156
aI82
aI279
aI142
aI4
aI126
aI154
aI325
aI177
aI162
aI315
aI171
aI181
aI76
aI345
aI170
aI499
aI454
aI293
aI146
aI83
aI305
aI268
aI298
aI132
aI300
aI303
aI327
aI137
aI127
aI146
aI34
aI541
aI243
aI269
aI327
aI40
aI508
aI166
aI367
aI532
aI732
aI160
aI338
aI157
aI185
aI150
aI173
aI179
aI166
aI157
aI160
aI72
aI294
aI282
aI133
aI291
aI259
aI297
aI341
aI74
aI304
aI274
aI311
aI299
aI321
aI174
aI309
aI185
aI87
aI289
aI150
aI73
aI83
aI336
aI148
aI331
aI148
aI173
aI207
aI178
aI165
aI76
aI280
aI147
aI163
aI145
aI157
aI485
aI1083
aI84
aI320
aI727
aI180
aI165
aI75
aI154
aI297
aI164
aI282
aI271
aI161
aI360
aI230
aI178
aI164
aI156
aI72
aI166
aI167
aI283
aI174
aI160
aI230
aI178
aI140
aI84
aI302
aI315
aI155
aI252
aI259
aI76
aI319
aI147
aI322
aI83
aI87
aI337
aI470
aI140
aI312
aI322
aI83
aI310
aI180
aI79
aI156
aI13
aI183
aI542
aI555
aI602
aI176
aI156
aI290
aI181
aI314
aI153
aI506
aI482
aI141
aI282
aI78
aI241
aI248
aI310
aI175
aI148
aI157
aI83
aI529
aI336
aI302
aI167
aI520
aI73
aI81
aI195
aI508
aI236
aI290
aI81
aI325
aI35
aI163
aI151
aI38
aI154
aI160
aI76
aI242
aI327
aI310
aI283
aI332
aI324
aI166
aI314
aI186
aI85
aI169
aI80
aI154
aI234
aI146
aI481
aI274
aI87
aI147
aI165
aI81
aI279
aI179
aI297
aI191
aI1350
aI287
aI311
aI151
aI169
aI164
aI584
aI534
aI168
aI515
aI306
aI298
aI94
aI346
aI268
aI81
aI146
aI170
aI263
aI254
aI328
aI320
aI31
aI152
aI374
aI530
aI295
aI326
aI264
aI288
aI75
aI178
aI272
aI168
aI316
aI354
aI182
aI79
aI1
aI191
aI264
aI152
aI278
aI244
aI368
aI139
aI304
aI35
aI303
aI516
aI263
aI84
aI81
aI308
aI148
aI139
aI170
aI296
aI157
aI73
aI97
aI174
aI274
aI123
aI154
aI310
aI300
aI314
aI295
aI175
aI155
aI16
aI142
aI179
aI45
aI78
aI319
aI83
aI159
aI95
aI292
aI177
aI316
aI159
aI316
aI318
aI158
aI258
aI499
aI178
aI306
aI285
aI266
aI312
aI84
aI314
aI298
aI78
aI434
aI347
aI13
aI336
aI171
aI329
aI76
aI242
aI144
aI1233
aI177
aI166
aI302
aI167
aI305
aI152
aI179
aI308
aI144
aI504
aI153
aI81
aI69
aI524
aI138
aI302
aI75
aI142
aI172
aI85
aI296
aI243
aI135
aI187
aI246
aI91
aI167
aI155
aI315
aI176
aI78
aI322
aI174
aI147
aI161
aI155
aI85
aI255
aI340
aI157
aI565
aI160
aI164
aI168
aI227
aI567
aI340
aI273
aI187
aI66
aI340
aI144
aI165
aI516
aI165
aI172
aI273
aI313
aI74
aI151
aI153
aI301
aI149
aI553
aI185
aI321
aI153
aI516
aI558
aI323
aI91
aI82
aI160
aI162
aI82
aI338
aI143
aI198
aI307
aI75
aI317
aI166
aI542
aI145
aI159
aI157
aI162
aI305
aI325
aI141
aI189
aI352
aI337
aI312
aI168
aI136
aI310
aI175
aI313
aI37
aI165
aI324
aI308
aI170
aI156
aI538
aI80
aI298
aI587
aI798
aI86
aI157
aI168
aI290
aI13
aI88
aI38
aI582
aI328
aI451
aI158
aI125
aI184
aI174
aI315
aI256
aI35
aI313
aI78
aI247
aI160
aI304
aI143
aI243
aI309
aI289
aI307
aI135
aI154
aI67
aI293
aI75
aI155
aI305
aI152
aI159
aI301
aI303
aI149
aI297
aI145
aI186
aI165
aI325
aI314
aI334
aI71
aI142
aI315
aI151
aI158
aI319
aI335
aI41
aI167
aI137
aI305
aI158
aI525
aI168
aI177
aI85
aI485
aI191
aI317
aI159
aI287
aI300
aI320
aI260
aI606
aI305
aI285
aI251
aI307
aI336
aI296
aI299
aI169
aI79
aI183
aI518
aI297
aI310
aI299
aI312
aI163
aI299
aI153
aI39
aI171
aI322
aI313
aI129
aI347
aI291
aI316
aI39
aI262
aI158
aI544
aI75
aI146
aI142
aI87
aI180
aI143
aI15
aI178
aI326
aI156
aI320
aI85
aI167
aI152
aI122
aI299
aI159
aI163
aI162
aI690
aI124
aI340
aI164
aI170
aI159
aI153
aI167
aI143
aI97
aI294
aI147
aI273
aI149
aI268
aI14
aI167
aI89
aI165
aI161
aI76
aI329
aI299
aI146
aI169
aI153
aI336
aI153
aI35
aI154
aI304
aI315
aI2
aI305
aI76
aI143
aI317
aI86
aI313
aI164
aI68
aI158
aI152
aI43
aI167
aI331
aI1084
aI313
aI151
aI166
aI163
aI88
aI313
aI283
aI163
aI393
aI161
aI243
aI164
aI149
aI304
aI334
aI261
aI67
aI571
aI381
aI164
aI160
aI308
aI336
aI135
aI138
aI236
aI152
aI279
aI42
aI164
aI151
aI295
aI384
aI238
aI79
aI494
aI150
aI282
aI243
aI180
aI166
aI540
aI322
aI371
aI327
aI620
aI314
aI282
aI337
aI554
aI185
aI15
aI256
aI149
aI41
aI168
aI355
aI162
aI158
aI72
aI317
aI231
aI150
aI141
aI166
aI267
aI255
aI152
aI137
aI332
aI320
aI147
aI380
aI175
aI163
aI160
aI284
aI359
aI148
aI314
aI134
aI162
aI239
aI495
aI337
aI167
aI310
aI81
aI309
aI328
aI140
aI159
aI77
aI184
aI88
aI163
aI159
aI175
aI292
aI35
aI178
aI357
aI183
aI189
aI282
aI139
aI161
aI307
aI238
aI250
aI307
aI371
aI821
aI63
aI298
aI313
aI73
aI158
aI85
aI298
aI151
aI319
aI246
aI144
aI772
aI153
aI250
aI87
aI341
aI392
aI327
aI155
aI162
aI322
aI157
aI304
aI300
aI289
aI327
aI353
aI40
aI77
aI289
aI157
aI326
aI540
aI151
aa(lp32
I280
aI305
aI144
aI448
aI242
aI70
aI154
aI153
aI274
aI41
aI143
aI160
aI168
aI158
aI159
aI75
aI319
aI325
aI322
aI168
aI376
aI166
aI83
aI4
aI146
aI290
aI85
aI34
aI304
aI319
aI301
aI154
aI170
aI146
aI167
aI296
aI305
aI67
aI184
aI71
aI139
aI403
aI322
aI193
aI302
aI34
aI537
aI298
aI166
aI157
aI176
aI296
aI260
aI73
aI362
aI157
aI301
aI238
aI135
aI330
aI147
aI153
aI70
aI536
aI318
aI157
aI628
aI551
aI310
aI90
aI326
aI143
aI173
aI293
aI165
aI169
aI77
aI173
aI157
aI73
aI78
aI75
aI311
aI323
aI185
aI186
aI82
aI174
aI288
aI85
aI287
aI193
aI72
aI178
aI35
aI280
aI260
aI313
aI330
aI160
aI66
aI185
aI320
aI161
aI157
aI298
aI297
aI285
aI313
aI76
aI339
aI81
aI90
aI280
aI150
aI188
aI336
aI292
aI310
aI149
aI34
aI291
aI152
aI36
aI155
aI142
aI154
aI395
aI151
aI156
aI267
aI81
aI293
aI321
aI329
aI315
aI488
aI170
aI282
aI75
aI149
aI82
aI491
aI259
aI158
aI474
aI239
aI87
aI260
aI174
aI300
aI144
aI283
aI269
aI148
aI165
aI166
aI230
aI313
aI242
aI192
aI70
aI161
aI82
aI81
aI168
aI83
aI314
aI126
aI164
aI278
aI38
aI487
aI522
aI280
aI161
aI174
aI367
aI170
aI308
aI110
aI283
aI164
aI86
aI330
aI145
aI170
aI181
aI163
aI336
aI161
aI361
aI77
aI163
aI297
aI178
aI456
aI187
aI142
aI153
aI290
aI380
aI182
aI179
aI2
aI162
aI250
aI155
aI170
aI550
aI37
aI269
aI253
aI73
aI91
aI159
aI151
aI498
aI181
aI132
aI292
aI181
aI156
aI530
aI490
aI252
aI157
aI333
aI310
aI154
aI516
aI179
aI536
aI288
aI86
aI187
aI165
aI327
aI277
aI160
aI302
aI242
aI71
aI77
aI351
aI191
aI180
aI281
aI154
aI145
aI160
aI148
aI320
aI154
aI36
aI155
aI175
aI257
aI149
aI299
aI303
aI329
aI163
aI320
aI13
aI190
aI172
aI149
aI84
aI178
aI340
aI155
aI88
aI166
aI260
aI155
aI312
aI309
aI159
aI305
aI306
aI38
aI72
aI218
aI297
aI170
aI504
aI172
aI866
aI358
aI168
aI183
aI177
aI328
aI330
aI602
aI303
aI306
aI231
aI284
aI252
aI189
aI352
aI362
aI147
aI148
aI169
aI254
aI267
aI276
aI146
aI283
aI171
aI178
aI288
aI166
aI168
aI355
aI194
aI334
aI168
aI167
aI169
aI158
aI163
aI140
aI463
aI148
aI157
aI4
aI304
aI159
aI88
aI338
aI287
aI83
aI76
aI37
aI168
aI156
aI39
aI146
aI316
aI164
aI339
aI296
aI166
aI168
aI354
aI293
aI162
aI64
aI156
aI121
aI167
aI291
aI88
aI292
aI143
aI318
aI178
aI314
aI168
aI280
aI196
aI279
aI78
aI168
aI176
aI15
aI75
aI157
aI155
aI142
aI161
aI152
aI304
aI301
aI19
aI70
aI169
aI169
aI175
aI237
aI78
aI310
aI80
aI130
aI298
aI309
aI281
aI140
aI32
aI37
aI160
aI78
aI197
aI149
aI149
aI305
aI281
aI296
aI470
aI40
aI549
aI181
aI36
aI1086
aI332
aI262
aI340
aI68
aI288
aI308
aI299
aI156
aI2
aI163
aI327
aI171
aI77
aI1446
aI155
aI171
aI37
aI164
aI39
aI306
aI271
aI176
aI161
aI560
aI16
aI144
aI256
aI147
aI242
aI276
aI165
aI146
aI166
aI148
aI71
aI163
aI301
aI147
aI171
aI163
aI87
aI155
aI169
aI166
aI4
aI275
aI147
aI317
aI301
aI540
aI169
aI167
aI186
aI37
aI258
aI168
aI182
aI291
aI71
aI71
aI171
aI158
aI293
aI83
aI299
aI1
aI168
aI323
aI307
aI172
aI80
aI155
aI167
aI143
aI174
aI224
aI276
aI256
aI217
aI186
aI373
aI156
aI295
aI513
aI171
aI174
aI168
aI147
aI159
aI293
aI300
aI142
aI171
aI324
aI895
aI77
aI77
aI154
aI162
aI157
aI306
aI37
aI248
aI83
aI79
aI152
aI157
aI756
aI140
aI37
aI311
aI159
aI146
aI343
aI314
aI37
aI157
aI238
aI563
aI159
aI268
aI203
aI299
aI318
aI311
aI327
aI138
aI91
aI179
aI87
aI182
aI522
aI323
aI488
aI520
aI505
aI171
aI657
aI34
aI278
aI326
aI286
aI336
aI181
aI73
aI170
aI310
aI213
aI307
aI142
aI290
aI155
aI508
aI468
aI162
aI292
aI74
aI115
aI316
aI856
aI307
aI179
aI156
aI141
aI145
aI207
aI173
aI173
aI158
aI233
aI529
aI286
aI151
aI148
aI294
aI112
aI272
aI168
aI185
aI164
aI166
aI307
aI368
aI95
aI351
aI167
aI177
aI164
aI197
aI166
aI160
aI575
aI176
aI152
aI157
aI289
aI166
aI136
aI313
aI521
aI139
aI169
aI279
aI13
aI324
aI174
aI163
aI300
aI76
aI177
aI159
aI132
aI162
aI579
aI316
aI74
aI165
aI148
aI166
aI299
aI159
aI310
aI319
aI341
aI330
aI283
aI314
aI334
aI178
aI169
aI180
aI302
aI261
aI169
aI166
aI168
aI150
aI176
aI182
aI159
aI152
aI79
aI148
aI352
aI270
aI305
aI166
aI367
aI292
aI517
aI88
aI160
aI151
aI636
aI333
aI80
aI42
aI332
aI235
aI138
aI93
aI83
aI36
aI317
aI83
aI263
aI298
aI2
aI172
aI45
aI311
aI183
aI324
aI152
aI151
aI131
aI293
aI297
aI176
aI184
aI306
aI152
aI262
aI354
aI186
aI172
aI152
aI354
aI170
aI232
aI705
aI1
aI74
aI74
aI39
aI301
aI163
aI78
aI305
aI311
aI73
aI170
aI291
aI329
aI538
aI356
aI134
aI328
aI157
aI311
aI13
aI169
aI308
aI155
aI254
aI89
aI80
aI311
aI160
aI147
aI141
aI84
aI90
aI69
aI299
aI173
aI326
aI153
aI172
aI323
aI158
aI267
aI315
aI171
aI313
aI1131
aI211
aI66
aI354
aI272
aI39
aI84
aI161
aI140
aI307
aI148
aI163
aI112
aI81
aI152
aI147
aI159
aI157
aI151
aI152
aI329
aI305
aI84
aI322
aI362
aI163
aI280
aI327
aI164
aI82
aI181
aI264
aI75
aI82
aI192
aI286
aI318
aI301
aI79
aI283
aI143
aI175
aI167
aI148
aI177
aI227
aI81
aI124
aI150
aI82
aI321
aI273
aI83
aI77
aI268
aI308
aI331
aI125
aI150
aI268
aI178
aI75
aI253
aI319
aI160
aI297
aI347
aI128
aI281
aI155
aI39
aI341
aI176
aI75
aI153
aI137
aI148
aI14
aI75
aI142
aI87
aI168
aI152
aI36
aI148
aI178
aI309
aI289
aI528
aI354
aI300
aI81
aI38
aI172
aI337
aI303
aI2
aI152
aI61
aI573
aI299
aI14
aI171
aI292
aI440
aI125
aI140
aI294
aI344
aI162
aI307
aI4
aI153
aI306
aI78
aI164
aI148
aI122
aI173
aI247
aI172
aI168
aI301
aI175
aI355
aI180
aI151
aI248
aI148
aI171
aI258
aI287
aI71
aI290
aI167
aI310
aI352
aI171
aI165
aI304
aI296
aI173
aI254
aI324
aI162
aI335
aI182
aI453
aI169
aI78
aI319
aI164
aI246
aI153
aI360
aI163
aI161
aI163
aI171
aI190
aI145
aI75
aI144
aI183
aI253
aI289
aI147
aI1135
aI162
aI530
aI244
aI164
aI143
aI167
aI159
aI146
aI159
aI148
aI156
aI62
aI308
aI74
aI281
aI143
aI148
aI308
aI333
aI303
aI36
aI278
aI70
aI292
aI187
aI71
aI274
aI181
aI291
aI318
aI161
aI165
aI346
aI164
aI167
aI76
aI173
aI299
aI75
aI167
aI306
aI360
aI155
aI266
aI14
aI84
aI250
aI316
aI156
aI38
aI312
aI182
aI70
aI171
aI267
aI145
aI316
aI80
aI148
aI328
aI558
aI188
aI183
aI502
aI156
aI91
aI92
aI170
aI131
aI330
aI79
aI162
aI170
aI77
aI284
aI2
aI161
aI166
aI135
aI180
aI260
aI498
aI291
aI314
aI173
aI164
aI285
aI361
aI323
aa(lp33
I225
aI584
aI87
aI332
aI143
aI297
aI293
aI309
aI310
aI166
aI143
aI72
aI165
aI325
aI291
aI259
aI173
aI308
aI167
aI85
aI312
aI147
aI0
aI307
aI224
aI312
aI308
aI245
aI273
aI142
aI295
aI186
aI153
aI148
aI152
aI299
aI161
aI150
aI186
aI147
aI87
aI253
aI286
aI196
aI492
aI156
aI71
aI160
aI654
aI189
aI34
aI281
aI159
aI272
aI305
aI152
aI164
aI39
aI323
aI152
aI359
aI152
aI153
aI179
aI147
aI274
aI284
aI290
aI175
aI511
aI163
aI293
aI310
aI163
aI243
aI511
aI677
aI301
aI291
aI174
aI299
aI263
aI530
aI294
aI149
aI280
aI543
aI130
aI40
aI314
aI328
aI152
aI306
aI158
aI307
aI86
aI171
aI183
aI179
aI280
aI336
aI166
aI276
aI149
aI250
aI163
aI321
aI755
aI139
aI281
aI501
aI86
aI140
aI128
aI163
aI160
aI316
aI273
aI247
aI150
aI78
aI169
aI180
aI316
aI302
aI165
aI177
aI90
aI75
aI576
aI14
aI241
aI188
aI281
aI513
aI86
aI159
aI80
aI78
aI168
aI159
aI255
aI79
aI146
aI386
aI153
aI168
aI369
aI174
aI183
aI161
aI165
aI154
aI122
aI84
aI317
aI325
aI168
aI172
aI162
aI148
aI171
aI157
aI170
aI313
aI374
aI171
aI341
aI67
aI68
aI157
aI330
aI164
aI179
aI72
aI285
aI155
aI72
aI286
aI311
aI39
aI303
aI530
aI167
aI140
aI170
aI275
aI367
aI85
aI247
aI72
aI79
aI73
aI172
aI305
aI165
aI159
aI157
aI256
aI140
aI171
aI155
aI73
aI238
aI184
aI320
aI78
aI329
aI155
aI162
aI130
aI166
aI288
aI241
aI272
aI327
aI290
aI159
aI186
aI347
aI282
aI162
aI322
aI38
aI175
aI73
aI162
aI638
aI86
aI138
aI159
aI311
aI169
aI540
aI159
aI129
aI379
aI281
aI309
aI387
aI150
aI141
aI84
aI295
aI154
aI154
aI173
aI295
aI149
aI154
aI166
aI764
aI249
aI321
aI130
aI182
aI78
aI515
aI492
aI359
aI75
aI153
aI156
aI162
aI265
aI300
aI139
aI146
aI287
aI147
aI311
aI85
aI159
aI159
aI75
aI311
aI40
aI490
aI251
aI530
aI149
aI312
aI303
aI309
aI75
aI159
aI147
aI72
aI202
aI154
aI155
aI248
aI72
aI151
aI249
aI520
aI277
aI253
aI268
aI76
aI148
aI90
aI164
aI68
aI167
aI69
aI226
aI83
aI63
aI317
aI171
aI145
aI310
aI300
aI32
aI177
aI305
aI78
aI83
aI35
aI289
aI325
aI152
aI153
aI179
aI174
aI153
aI145
aI177
aI144
aI151
aI181
aI138
aI336
aI188
aI137
aI86
aI162
aI298
aI151
aI642
aI322
aI145
aI170
aI88
aI40
aI148
aI72
aI496
aI142
aI147
aI345
aI337
aI293
aI242
aI160
aI309
aI310
aI336
aI369
aI73
aI157
aI186
aI285
aI160
aI74
aI168
aI35
aI287
aI154
aI81
aI74
aI349
aI155
aI73
aI153
aI155
aI295
aI634
aI131
aI165
aI161
aI466
aI83
aI140
aI531
aI123
aI293
aI311
aI503
aI142
aI480
aI316
aI78
aI177
aI259
aI167
aI78
aI306
aI172
aI299
aI317
aI302
aI289
aI337
aI286
aI147
aI81
aI153
aI154
aI75
aI305
aI145
aI155
aI178
aI341
aI310
aI305
aI328
aI168
aI245
aI349
aI273
aI71
aI240
aI166
aI167
aI151
aI296
aI304
aI36
aI271
aI297
aI308
aI166
aI312
aI177
aI75
aI370
aI343
aI561
aI328
aI297
aI132
aI510
aI327
aI150
aI304
aI168
aI166
aI138
aI83
aI304
aI316
aI167
aI158
aI147
aI184
aI148
aI162
aI237
aI280
aI518
aI79
aI449
aI187
aI302
aI154
aI292
aI168
aI159
aI246
aI156
aI458
aI85
aI88
aI151
aI271
aI86
aI167
aI164
aI321
aI181
aI153
aI70
aI155
aI85
aI168
aI332
aI303
aI339
aI305
aI161
aI90
aI344
aI313
aI80
aI148
aI300
aI301
aI184
aI278
aI182
aI455
aI167
aI164
aI173
aI335
aI77
aI75
aI74
aI304
aI141
aI144
aI159
aI81
aI76
aI39
aI156
aI164
aI146
aI543
aI347
aI172
aI77
aI267
aI239
aI313
aI140
aI497
aI322
aI38
aI301
aI75
aI141
aI92
aI185
aI164
aI461
aI1082
aI71
aI275
aI73
aI177
aI187
aI277
aI160
aI90
aI78
aI327
aI525
aI163
aI160
aI292
aI261
aI273
aI340
aI235
aI127
aI288
aI316
aI295
aI70
aI313
aI143
aI147
aI190
aI189
aI71
aI299
aI302
aI151
aI75
aI166
aI170
aI78
aI36
aI509
aI300
aI311
aI289
aI312
aI140
aI307
aI161
aI165
aI181
aI79
aI157
aI185
aI145
aI334
aI166
aI301
aI79
aI298
aI175
aI295
aI328
aI287
aI294
aI488
aI304
aI294
aI282
aI166
aI166
aI80
aI85
aI312
aI88
aI171
aI329
aI160
aI158
aI302
aI77
aI358
aI170
aI176
aI176
aI266
aI537
aI336
aI77
aI168
aI141
aI41
aI86
aI305
aI245
aI312
aI167
aI162
aI2
aI146
aI165
aI352
aI300
aI130
aI312
aI166
aI157
aI271
aI153
aI156
aI85
aI147
aI316
aI253
aI340
aI77
aI358
aI143
aI159
aI174
aI154
aI166
aI182
aI581
aI140
aI129
aI314
aI270
aI312
aI237
aI674
aI333
aI151
aI75
aI81
aI540
aI292
aI73
aI188
aI78
aI77
aI250
aI141
aI158
aI38
aI176
aI86
aI541
aI275
aI158
aI166
aI145
aI557
aI81
aI304
aI141
aI173
aI158
aI41
aI149
aI39
aI159
aI299
aI40
aI174
aI164
aI297
aI86
aI598
aI159
aI73
aI173
aI42
aI146
aI328
aI298
aI308
aI588
aI200
aI157
aI159
aI539
aI159
aI39
aI62
aI179
aI360
aI311
aI174
aI324
aI148
aI329
aI535
aI154
aI313
aI349
aI345
aI167
aI150
aI163
aI174
aI304
aI81
aI298
aI39
aI219
aI148
aI189
aI322
aI270
aI292
aI154
aI170
aI70
aI35
aI327
aI148
aI152
aI169
aI184
aI171
aI165
aI161
aI154
aI174
aI153
aI147
aI16
aI14
aI73
aI150
aI155
aI420
aI149
aI171
aI158
aI560
aI366
aI199
aI303
aI151
aI332
aI262
aI285
aI239
aI167
aI170
aI146
aI170
aI152
aI303
aI78
aI74
aI540
aI169
aI64
aI158
aI151
aI316
aI271
aI345
aI164
aI315
aI170
aI260
aI505
aI318
aI301
aI486
aI527
aI82
aI44
aI332
aI288
aI342
aI571
aI159
aI154
aI260
aI78
aI182
aI76
aI294
aI586
aI136
aI480
aI75
aI172
aI137
aI84
aI362
aI150
aI292
aI288
aI499
aI164
aI88
aI149
aI313
aI162
aI310
aI319
aI153
aI282
aI165
aI35
aI175
aI245
aI182
aI72
aI150
aI249
aI312
aI305
aI84
aI161
aI173
aI275
aI32
aI177
aI162
aI323
aI155
aI316
aI292
aI316
aI172
aI304
aI330
aI156
aI277
aI312
aI137
aI153
aI162
aI163
aI323
aI148
aI289
aI303
aI162
aI166
aI338
aI245
aI313
aI137
aI303
aI285
aI152
aI357
aI143
aI150
aI161
aI81
aI506
aI152
aI87
aI85
aI336
aI76
aI352
aI153
aI126
aI270
aI279
aI162
aI146
aI91
aI142
aI163
aI164
aI180
aI335
aI235
aI174
aI147
aI145
aI167
aI230
aI169
aI163
aI159
aI191
aI39
aI83
aI299
aI156
aI183
aI162
aI313
aI81
aI16
aI532
aI339
aI246
aI390
aI168
aI157
aI142
aI76
aI70
aI78
aI233
aI168
aI171
aI526
aI151
aI161
aI176
aI165
aI728
aI186
aI280
aI174
aI34
aI138
aI190
aI334
aI145
aI570
aI611
aI322
aI174
aI167
aI268
aI77
aI301
aI148
aI558
aI166
aI373
aI497
aI177
aI316
aI173
aI160
aI146
aI154
aI86
aI144
aI183
aI148
aI155
aI140
aI301
aI155
aI260
aI146
aI535
aI73
aI75
aI160
aI302
aI221
aI146
aI300
aI288
aI155
aI306
aI304
aI261
aI156
aI332
aI171
aa(lp34
I338
aI125
aI74
aI189
aI158
aI324
aI289
aI292
aI151
aI155
aI904
aI68
aI150
aI148
aI324
aI151
aI159
aI179
aI163
aI166
aI664
aI454
aI142
aI143
aI321
aI281
aI284
aI151
aI159
aI354
aI92
aI155
aI531
aI278
aI226
aI80
aI281
aI322
aI73
aI335
aI188
aI165
aI451
aI35
aI80
aI81
aI147
aI242
aI297
aI73
aI372
aI229
aI179
aI154
aI280
aI292
aI240
aI165
aI72
aI301
aI78
aI2
aI79
aI146
aI82
aI177
aI621
aI135
aI283
aI317
aI81
aI266
aI225
aI247
aI88
aI86
aI160
aI322
aI516
aI291
aI388
aI157
aI141
aI72
aI303
aI307
aI313
aI175
aI293
aI210
aI313
aI241
aI184
aI81
aI138
aI330
aI171
aI308
aI480
aI262
aI353
aI243
aI511
aI280
aI147
aI183
aI322
aI556
aI173
aI182
aI1019
aI156
aI377
aI160
aI254
aI313
aI174
aI165
aI149
aI163
aI323
aI145
aI477
aI160
aI155
aI72
aI271
aI294
aI148
aI588
aI122
aI260
aI182
aI114
aI315
aI179
aI554
aI268
aI78
aI290
aI74
aI143
aI615
aI247
aI316
aI279
aI36
aI179
aI159
aI483
aI158
aI313
aI154
aI35
aI167
aI320
aI227
aI271
aI323
aI159
aI181
aI36
aI344
aI329
aI169
aI128
aI330
aI313
aI132
aI159
aI303
aI296
aI77
aI300
aI151
aI176
aI273
aI167
aI352
aI292
aI504
aI70
aI147
aI323
aI319
aI326
aI152
aI160
aI723
aI148
aI150
aI150
aI272
aI344
aI314
aI313
aI74
aI174
aI153
aI315
aI262
aI130
aI345
aI162
aI78
aI182
aI168
aI337
aI76
aI168
aI69
aI164
aI301
aI75
aI173
aI34
aI623
aI294
aI152
aI154
aI170
aI153
aI86
aI221
aI273
aI465
aI150
aI720
aI171
aI152
aI303
aI295
aI155
aI85
aI80
aI298
aI154
aI332
aI367
aI319
aI333
aI87
aI156
aI71
aI168
aI352
aI143
aI300
aI313
aI156
aI79
aI305
aI299
aI315
aI226
aI147
aI39
aI1012
aI79
aI307
aI164
aI41
aI84
aI249
aI190
aI39
aI38
aI179
aI385
aI150
aI304
aI639
aI82
aI280
aI166
aI152
aI1
aI171
aI299
aI38
aI501
aI163
aI169
aI170
aI77
aI229
aI132
aI275
aI160
aI245
aI316
aI119
aI309
aI332
aI156
aI162
aI310
aI79
aI289
aI17
aI520
aI342
aI34
aI531
aI79
aI166
aI319
aI163
aI279
aI155
aI176
aI512
aI297
aI514
aI161
aI86
aI182
aI160
aI295
aI149
aI177
aI324
aI156
aI503
aI77
aI283
aI167
aI287
aI167
aI332
aI164
aI152
aI486
aI176
aI283
aI309
aI160
aI159
aI41
aI153
aI166
aI327
aI153
aI156
aI169
aI363
aI162
aI68
aI230
aI162
aI174
aI289
aI337
aI276
aI573
aI155
aI181
aI140
aI154
aI36
aI505
aI162
aI147
aI346
aI159
aI172
aI81
aI152
aI84
aI161
aI250
aI167
aI75
aI302
aI330
aI298
aI139
aI329
aI175
aI273
aI285
aI176
aI146
aI511
aI473
aI185
aI294
aI309
aI293
aI288
aI170
aI171
aI332
aI262
aI324
aI153
aI37
aI124
aI281
aI39
aI548
aI159
aI300
aI330
aI814
aI309
aI293
aI308
aI153
aI281
aI157
aI256
aI177
aI157
aI293
aI290
aI167
aI335
aI147
aI115
aI170
aI522
aI277
aI316
aI293
aI166
aI158
aI142
aI324
aI132
aI151
aI583
aI323
aI87
aI248
aI176
aI373
aI158
aI169
aI181
aI40
aI321
aI175
aI148
aI89
aI72
aI569
aI160
aI94
aI325
aI148
aI342
aI176
aI483
aI313
aI246
aI164
aI295
aI297
aI285
aI172
aI151
aI157
aI37
aI289
aI87
aI301
aI158
aI155
aI72
aI153
aI167
aI72
aI176
aI545
aI159
aI307
aI146
aI252
aI360
aI69
aI140
aI175
aI316
aI293
aI143
aI511
aI35
aI311
aI527
aI272
aI300
aI240
aI73
aI512
aI178
aI293
aI2
aI330
aI154
aI322
aI147
aI85
aI284
aI178
aI69
aI283
aI81
aI171
aI168
aI324
aI291
aI165
aI186
aI271
aI229
aI285
aI173
aI149
aI37
aI260
aI158
aI76
aI72
aI160
aI319
aI156
aI279
aI167
aI287
aI169
aI139
aI304
aI158
aI149
aI159
aI326
aI330
aI148
aI177
aI157
aI153
aI180
aI352
aI311
aI190
aI175
aI79
aI172
aI138
aI306
aI71
aI170
aI136
aI464
aI288
aI165
aI127
aI140
aI272
aI313
aI133
aI145
aI79
aI171
aI260
aI170
aI322
aI309
aI422
aI544
aI88
aI153
aI172
aI176
aI138
aI309
aI287
aI162
aI85
aI144
aI299
aI275
aI167
aI286
aI287
aI149
aI315
aI165
aI236
aI314
aI179
aI328
aI64
aI283
aI340
aI139
aI177
aI171
aI171
aI84
aI335
aI164
aI162
aI161
aI1210
aI72
aI298
aI151
aI142
aI39
aI179
aI72
aI292
aI159
aI147
aI305
aI154
aI333
aI88
aI76
aI166
aI252
aI305
aI166
aI523
aI264
aI162
aI166
aI241
aI218
aI73
aI154
aI132
aI86
aI233
aI501
aI248
aI303
aI1012
aI452
aI246
aI88
aI173
aI299
aI333
aI77
aI240
aI254
aI326
aI703
aI294
aI315
aI73
aI153
aI75
aI325
aI162
aI163
aI160
aI36
aI346
aI152
aI296
aI139
aI78
aI84
aI141
aI493
aI321
aI371
aI122
aI164
aI316
aI149
aI74
aI80
aI177
aI84
aI189
aI341
aI160
aI168
aI306
aI44
aI159
aI298
aI261
aI256
aI69
aI523
aI167
aI503
aI164
aI74
aI270
aI157
aI316
aI162
aI85
aI245
aI81
aI364
aI162
aI307
aI321
aI149
aI171
aI149
aI74
aI309
aI37
aI160
aI327
aI79
aI316
aI175
aI316
aI547
aI158
aI31
aI81
aI147
aI162
aI32
aI39
aI243
aI71
aI123
aI263
aI83
aI84
aI81
aI186
aI277
aI298
aI149
aI165
aI163
aI85
aI249
aI118
aI158
aI156
aI81
aI152
aI36
aI158
aI175
aI306
aI150
aI186
aI81
aI151
aI169
aI73
aI136
aI1086
aI134
aI161
aI146
aI275
aI80
aI136
aI293
aI94
aI162
aI484
aI333
aI193
aI556
aI170
aI2
aI41
aI141
aI332
aI137
aI143
aI340
aI84
aI77
aI36
aI317
aI346
aI149
aI134
aI277
aI238
aI133
aI149
aI144
aI168
aI185
aI80
aI329
aI160
aI134
aI323
aI302
aI46
aI151
aI299
aI194
aI176
aI308
aI79
aI166
aI305
aI177
aI291
aI261
aI250
aI164
aI170
aI188
aI167
aI315
aI323
aI496
aI308
aI153
aI258
aI81
aI12
aI89
aI293
aI168
aI285
aI164
aI178
aI310
aI131
aI175
aI149
aI968
aI79
aI289
aI152
aI346
aI175
aI36
aI320
aI171
aI2
aI259
aI138
aI196
aI166
aI172
aI167
aI295
aI305
aI301
aI264
aI298
aI153
aI646
aI157
aI149
aI157
aI322
aI123
aI302
aI483
aI330
aI233
aI81
aI326
aI182
aI168
aI226
aI185
aI163
aI296
aI78
aI327
aI151
aI247
aI294
aI46
aI152
aI264
aI171
aI161
aI86
aI300
aI316
aI253
aI297
aI178
aI166
aI4
aI174
aI147
aI146
aI79
aI148
aI161
aI267
aI159
aI523
aI303
aI291
aI87
aI72
aI313
aI285
aI309
aI186
aI152
aI144
aI160
aI273
aI156
aI179
aI303
aI174
aI79
aI671
aI173
aI232
aI261
aI159
aI155
aI224
aI318
aI476
aI170
aI88
aI529
aI273
aI150
aI162
aI141
aI291
aI179
aI330
aI318
aI547
aI246
aI168
aI178
aI74
aI307
aI307
aI309
aI350
aI705
aI326
aI175
aI249
aI150
aI169
aI158
aI160
aI289
aI340
aI173
aI258
aI81
aI32
aI286
aI309
aI154
aI152
aI1
aI170
aI270
aI261
aI169
aI236
aI500
aI176
aI281
aI215
aI157
aI78
aI81
aI165
aI288
aI316
aI306
aI144
aI71
aI74
aI306
aI157
aI147
aI281
aI134
aI302
aI126
aI76
aI146
aI142
aI146
aI241
aI305
aI277
aI39
aasS'experiment'
p35
(dp36
S'trialsPerAgent'
p37
I1000
sS'numAgents'
p38
(lp39
I10
aI20
aI30
aI40
aI50
aI60
aI70
aI80
aI90
aI100
aI110
aI120
aI130
aI140
aI150
aI160
aI170
aI180
aI190
aI200
aI210
aI220
aI230
aI240
aI250
aI260
aI270
aI280
aI290
aI300
asS'D'
p40
(lp41
I40
aI40
aI40
aI40
aI40
aI40
aI40
aI40
aI40
aI40
aI40
aI40
aI40
aI40
aI40
aI40
aI40
aI40
aI40
aI40
aI40
aI40
aI40
aI40
aI40
aI40
aI40
aI40
aI40
aI40
assS'type'
p42
S'FKLS1'
p43
s.