(dp0
S'argsDesc'
p1
S'function f square'
p2
sS'data'
p3
(lp4
(lp5
I969
aI14984
aI28594
aI15294
aI3799
aI15318
aI7099
aI14257
aI13877
aI11751
aI29093
aI6031
aI7068
aI3602
aI14863
aI12125
aI14850
aI15227
aI14264
aI15357
aI7455
aI3819
aI3861
aI1944
aI3571
aI437
aI14825
aI15241
aI1935
aI14620
aI28526
aI7993
aI7833
aI15088
aI29120
aI11655
aI13355
aI14694
aI23920
aI26410
aI7409
aI23383
aI28878
aI15345
aI26810
aI15294
aI439
aI15297
aI15354
aI30432
aI27201
aI15042
aI15153
aI15052
aI7327
aI3864
aI28983
aI6966
aI28407
aI24147
aI13769
aI13398
aI23597
aI17565
aI3502
aI186
aI15168
aI7608
aI23428
aI14043
aI14225
aI7336
aI8269
aI27034
aI1859
aI15444
aI15113
aI14189
aI17549
aI16365
aI7634
aI7459
aI14416
aI14339
aI8949
aI3727
aI24070
aI12070
aI12231
aI23911
aI15151
aI6775
aI13781
aI13611
aI7331
aI969
aI7166
aI14876
aI8335
aI3054
aa(lp6
I14326
aI23415
aI24
aI23730
aI13963
aI3037
aI14264
aI14311
aI13991
aI863
aI14646
aI12071
aI12085
aI3767
aI3127
aI26356
aI17692
aI14389
aI17651
aI3121
aI7450
aI15012
aI1902
aI23391
aI7119
aI3678
aI14807
aI7606
aI3831
aI7177
aI23858
aI7506
aI7599
aI13831
aI7215
aI7664
aI1530
aI14418
aI26415
aI15240
aI15130
aI17658
aI3899
aI7400
aI28275
aI14711
aI8088
aI26848
aI17643
aI902
aI16276
aI7238
aI15274
aI15176
aI186
aI7689
aI7360
aI8085
aI27955
aI13752
aI1944
aI14228
aI27829
aI14338
aI3028
aI7291
aI13421
aI6996
aI3915
aI24154
aI7321
aI7509
aI3793
aI14639
aI7399
aI7104
aI13688
aI12189
aI8963
aI8333
aI1911
aI26907
aI7491
aI15451
aI7824
aI17614
aI13343
aI14537
aI17666
aI14241
aI17719
aI23580
aI739
aI23523
aI15322
aI27163
aI3807
aI7606
aI14950
aI15120
aa(lp7
I7383
aI14502
aI8907
aI3821
aI17724
aI7296
aI7758
aI17545
aI3603
aI7738
aI1840
aI15438
aI17633
aI8971
aI9009
aI969
aI14301
aI15338
aI13736
aI14300
aI1831
aI6166
aI14811
aI7309
aI3502
aI15116
aI14384
aI3781
aI14227
aI14724
aI3611
aI13617
aI7659
aI24246
aI23550
aI2026
aI27140
aI15488
aI3756
aI15295
aI13949
aI12189
aI7441
aI14085
aI3828
aI1941
aI26965
aI3776
aI24027
aI14889
aI193
aI7059
aI7299
aI3719
aI13978
aI28051
aI14056
aI7869
aI13912
aI14027
aI908
aI23733
aI3788
aI7687
aI7270
aI3776
aI1847
aI8889
aI14249
aI3649
aI7483
aI7094
aI9007
aI14648
aI13821
aI14546
aI451
aI15363
aI13920
aI7001
aI7480
aI926
aI26544
aI7141
aI13864
aI13867
aI27169
aI3791
aI7750
aI15525
aI14432
aI13977
aI3876
aI14524
aI30016
aI7515
aI14322
aI7355
aI23303
aI3526
aa(lp8
I7229
aI13986
aI8992
aI15258
aI3678
aI13721
aI14744
aI14689
aI14622
aI3863
aI69
aI7749
aI14339
aI3820
aI12087
aI3864
aI7626
aI3645
aI15348
aI1557
aI3827
aI15042
aI3829
aI15209
aI7528
aI15149
aI14627
aI8976
aI3746
aI1846
aI1945
aI14745
aI14610
aI14505
aI27279
aI14521
aI7011
aI14229
aI3808
aI14535
aI874
aI4133
aI7267
aI7794
aI900
aI13742
aI14998
aI14727
aI15310
aI15464
aI7841
aI14269
aI15230
aI1877
aI26440
aI12211
aI8952
aI7732
aI3628
aI450
aI7402
aI178
aI23893
aI934
aI7717
aI23983
aI7162
aI14672
aI7722
aI7083
aI14483
aI14338
aI14911
aI26489
aI7493
aI7614
aI17680
aI1876
aI24192
aI14770
aI14762
aI7696
aI8922
aI463
aI15137
aI1870
aI14369
aI13692
aI891
aI7501
aI13836
aI15060
aI17666
aI431
aI14284
aI14083
aI1833
aI3872
aI15246
aI1982
aa(lp9
I9030
aI14244
aI15295
aI7668
aI8914
aI27066
aI23360
aI14680
aI13957
aI15360
aI7040
aI3744
aI11902
aI14845
aI7254
aI15378
aI15231
aI3644
aI4558
aI15307
aI7712
aI14560
aI7231
aI7603
aI875
aI14179
aI14056
aI7010
aI3638
aI13454
aI14824
aI15441
aI14418
aI15312
aI14105
aI1852
aI14054
aI6166
aI3898
aI17636
aI14171
aI11803
aI14533
aI944
aI7158
aI7406
aI8972
aI13416
aI15227
aI14496
aI892
aI14640
aI14399
aI13866
aI14992
aI14583
aI6932
aI14319
aI1769
aI24226
aI915
aI3725
aI14329
aI3578
aI14953
aI463
aI7236
aI901
aI7127
aI7198
aI14883
aI3777
aI11925
aI26461
aI7385
aI7585
aI27485
aI14324
aI14233
aI15124
aI13918
aI7411
aI14146
aI14251
aI15122
aI14482
aI13423
aI14989
aI73
aI14885
aI887
aI7086
aI6977
aI1894
aI7303
aI923
aI931
aI1554
aI3627
aI14752
aa(lp10
I3976
aI14557
aI8983
aI14519
aI7731
aI15306
aI3854
aI23854
aI14549
aI17717
aI14971
aI14733
aI14434
aI17698
aI883
aI7393
aI7119
aI8904
aI15067
aI7666
aI14583
aI7009
aI7634
aI6173
aI16524
aI3800
aI14861
aI3712
aI14131
aI15158
aI3606
aI425
aI1888
aI27014
aI13721
aI13445
aI14956
aI3968
aI23189
aI14567
aI1900
aI6944
aI3917
aI7400
aI3812
aI7228
aI7658
aI1566
aI14668
aI7119
aI7530
aI23385
aI15178
aI14253
aI7567
aI7118
aI7080
aI7695
aI7734
aI7071
aI3680
aI1965
aI879
aI12052
aI7508
aI7790
aI14102
aI7088
aI7538
aI14712
aI14285
aI3854
aI23376
aI3745
aI14697
aI3783
aI7763
aI14897
aI13726
aI14738
aI15296
aI17715
aI14410
aI8986
aI1823
aI7136
aI3797
aI3611
aI7534
aI7816
aI14209
aI7448
aI7549
aI3720
aI7699
aI14203
aI13928
aI14450
aI14373
aI14557
aa(lp11
I7112
aI3688
aI7325
aI14295
aI13356
aI15303
aI14063
aI14103
aI902
aI14927
aI7211
aI891
aI15406
aI13945
aI7019
aI3679
aI1567
aI7463
aI15247
aI14135
aI12210
aI8950
aI1905
aI6959
aI7099
aI872
aI14803
aI15019
aI15111
aI9007
aI923
aI1800
aI6132
aI14577
aI15208
aI14176
aI15259
aI180
aI13688
aI7463
aI7075
aI13744
aI12269
aI7475
aI3670
aI7087
aI13889
aI6204
aI888
aI962
aI14482
aI14031
aI7053
aI13879
aI3670
aI3554
aI3619
aI7635
aI14235
aI13407
aI431
aI7259
aI14230
aI14249
aI877
aI7069
aI7482
aI13986
aI13411
aI17591
aI14324
aI3817
aI28057
aI15047
aI14270
aI3633
aI7001
aI14282
aI14439
aI13945
aI8997
aI457
aI13872
aI7539
aI1953
aI14910
aI14351
aI14599
aI8965
aI13777
aI14870
aI9016
aI14330
aI6984
aI15367
aI1882
aI8936
aI27136
aI7470
aI7570
aa(lp12
I8943
aI13798
aI14501
aI7592
aI187
aI3649
aI3881
aI7642
aI14730
aI7493
aI13417
aI13842
aI15265
aI3571
aI14526
aI7045
aI9010
aI14920
aI178
aI1858
aI15364
aI14130
aI3903
aI12162
aI14627
aI1932
aI7400
aI3585
aI15199
aI7035
aI11969
aI9015
aI14376
aI14643
aI7020
aI7714
aI12265
aI7097
aI7784
aI7375
aI14218
aI13891
aI8990
aI13862
aI3867
aI14196
aI14910
aI14399
aI1883
aI932
aI13471
aI7107
aI13453
aI7631
aI8897
aI13384
aI7602
aI14730
aI15457
aI9005
aI8995
aI14303
aI14661
aI13413
aI7396
aI3646
aI7366
aI14674
aI14164
aI7715
aI8948
aI893
aI3552
aI8965
aI905
aI14850
aI3912
aI7547
aI975
aI14333
aI13380
aI1905
aI7412
aI1540
aI1880
aI13967
aI8945
aI3739
aI1801
aI15392
aI3740
aI13374
aI14442
aI7402
aI14711
aI14310
aI3800
aI13940
aI17646
aI15361
aa(lp13
I7024
aI945
aI6091
aI3638
aI3745
aI17687
aI7317
aI7229
aI27292
aI3754
aI1804
aI15126
aI14612
aI7670
aI6902
aI14318
aI7591
aI14726
aI15215
aI7194
aI7388
aI14685
aI872
aI14591
aI14724
aI949
aI14056
aI1548
aI3883
aI1879
aI893
aI13949
aI7428
aI1849
aI7456
aI14789
aI7387
aI14706
aI14249
aI7014
aI14125
aI14429
aI7725
aI3583
aI418
aI7432
aI7641
aI14521
aI14643
aI14435
aI7081
aI15173
aI1796
aI14361
aI8948
aI8971
aI15147
aI8905
aI7117
aI1898
aI14996
aI7798
aI14806
aI3674
aI7630
aI15094
aI7154
aI6162
aI8891
aI15201
aI7022
aI423
aI15271
aI3897
aI24012
aI13852
aI6133
aI14723
aI3685
aI7564
aI7766
aI1820
aI3638
aI14928
aI449
aI14933
aI24006
aI7601
aI7364
aI15226
aI13897
aI13873
aI6986
aI8985
aI1892
aI14564
aI7214
aI14603
aI3732
aI8965
aa(lp14
I914
aI980
aI14056
aI1803
aI14820
aI8983
aI8930
aI13762
aI14527
aI1884
aI14013
aI7377
aI8968
aI14689
aI14495
aI3638
aI7477
aI7225
aI7115
aI14339
aI7172
aI14187
aI14178
aI9030
aI14093
aI14154
aI14201
aI7223
aI13835
aI7239
aI3959
aI7578
aI14833
aI8979
aI3638
aI14677
aI7285
aI7440
aI7279
aI14731
aI14116
aI3824
aI3815
aI14569
aI7149
aI7002
aI17586
aI3696
aI3884
aI14186
aI174
aI3944
aI23536
aI14946
aI14562
aI14900
aI7315
aI14702
aI3625
aI1846
aI13735
aI929
aI7164
aI6890
aI14643
aI15377
aI430
aI14382
aI24072
aI14644
aI7722
aI7292
aI14532
aI7146
aI13765
aI7472
aI7739
aI3669
aI3645
aI7099
aI26481
aI1828
aI900
aI3524
aI17588
aI920
aI14291
aI3514
aI14313
aI7513
aI15081
aI7039
aI14748
aI14602
aI8994
aI200
aI965
aI14014
aI14904
aI14442
aa(lp15
I1834
aI8984
aI14859
aI3655
aI1986
aI3085
aI14180
aI8985
aI7394
aI188
aI7510
aI14621
aI14373
aI7087
aI17627
aI66
aI14885
aI7634
aI7725
aI14244
aI14935
aI8954
aI8969
aI15155
aI7019
aI14698
aI14350
aI3710
aI3581
aI7605
aI15432
aI185
aI7454
aI8973
aI14577
aI1975
aI3811
aI14373
aI15468
aI14361
aI1798
aI14000
aI967
aI14544
aI13452
aI3085
aI14661
aI14358
aI3584
aI3598
aI436
aI14781
aI7337
aI14464
aI3625
aI14202
aI14901
aI7050
aI8994
aI14239
aI15515
aI190
aI7112
aI14265
aI14236
aI3766
aI3907
aI7363
aI7223
aI7432
aI14931
aI3772
aI14139
aI14976
aI7471
aI3694
aI14038
aI875
aI3606
aI7737
aI7700
aI1856
aI7401
aI7098
aI3677
aI7283
aI7218
aI1952
aI17662
aI7039
aI14368
aI1855
aI14862
aI3546
aI13726
aI14208
aI1794
aI1919
aI1860
aI3605
aa(lp16
I1833
aI15187
aI14498
aI14660
aI3793
aI7051
aI14331
aI7754
aI7666
aI14623
aI7653
aI14390
aI14175
aI13746
aI3638
aI949
aI8953
aI1
aI7656
aI8944
aI7109
aI7377
aI7090
aI15031
aI7629
aI7725
aI7260
aI8959
aI946
aI14687
aI14280
aI14411
aI13970
aI14483
aI7523
aI7369
aI15157
aI8952
aI15276
aI14788
aI191
aI14434
aI7546
aI14273
aI7252
aI890
aI8944
aI14421
aI7286
aI14718
aI7665
aI7476
aI14054
aI13868
aI14382
aI7513
aI6214
aI963
aI7678
aI14166
aI7773
aI3575
aI14373
aI14828
aI15004
aI9019
aI14925
aI3675
aI72
aI14265
aI14496
aI13839
aI3704
aI13949
aI15276
aI7416
aI14384
aI15144
aI3665
aI17635
aI7214
aI14091
aI13822
aI15213
aI14114
aI14725
aI14844
aI13736
aI17588
aI180
aI13368
aI14605
aI13357
aI3674
aI9012
aI455
aI3906
aI14354
aI7005
aI14071
aa(lp17
I8947
aI1966
aI14208
aI6150
aI7574
aI66
aI15024
aI869
aI14494
aI3679
aI14448
aI9009
aI3879
aI3793
aI14474
aI8991
aI3736
aI7491
aI3593
aI7226
aI7265
aI7254
aI3752
aI14584
aI1873
aI14945
aI7271
aI7449
aI7586
aI3829
aI940
aI14164
aI3647
aI8947
aI3580
aI7641
aI14234
aI14575
aI13432
aI8942
aI12248
aI15156
aI7159
aI17698
aI7621
aI13448
aI3588
aI7227
aI3655
aI7262
aI6121
aI14768
aI7134
aI26525
aI1899
aI7283
aI3890
aI7508
aI14937
aI14319
aI15389
aI12204
aI14819
aI14697
aI15234
aI74
aI3547
aI13381
aI13743
aI7278
aI7045
aI8985
aI910
aI6995
aI13973
aI7301
aI3706
aI1963
aI7653
aI3708
aI14578
aI26445
aI14799
aI14313
aI14214
aI7308
aI3762
aI15091
aI15397
aI14303
aI14234
aI7642
aI14477
aI13370
aI14911
aI3804
aI3557
aI17614
aI1775
aI7275
aa(lp18
I7160
aI13390
aI3941
aI15171
aI7483
aI7320
aI1843
aI1831
aI13750
aI13384
aI896
aI1524
aI1811
aI7739
aI17631
aI3780
aI7753
aI907
aI7308
aI14309
aI7277
aI7391
aI14283
aI7206
aI14367
aI7328
aI910
aI7816
aI15246
aI72
aI14625
aI14200
aI15134
aI14644
aI6991
aI7341
aI14684
aI4
aI14678
aI14454
aI14680
aI3638
aI14499
aI924
aI14220
aI3798
aI922
aI14779
aI7258
aI7519
aI7257
aI3663
aI1791
aI187
aI8924
aI7382
aI3911
aI7132
aI14750
aI17706
aI14257
aI1793
aI3636
aI14545
aI8965
aI14162
aI14355
aI3888
aI7502
aI6996
aI7506
aI8915
aI13784
aI14344
aI14806
aI3831
aI7516
aI943
aI15107
aI3
aI1758
aI14682
aI8996
aI15332
aI14028
aI3706
aI14403
aI14127
aI982
aI15061
aI7237
aI7216
aI3629
aI13792
aI15097
aI7082
aI14911
aI418
aI14924
aI3852
aa(lp19
I3951
aI3700
aI1876
aI7191
aI3841
aI24
aI7314
aI7426
aI14518
aI14439
aI7272
aI1810
aI6978
aI3713
aI7562
aI14561
aI7248
aI7553
aI7194
aI1964
aI14747
aI14134
aI14805
aI7419
aI13751
aI14266
aI14247
aI7397
aI7518
aI6960
aI13377
aI1821
aI14037
aI13435
aI1850
aI14870
aI7362
aI15414
aI3886
aI7159
aI7239
aI7295
aI3929
aI8954
aI7032
aI7716
aI7128
aI14812
aI7291
aI14725
aI7359
aI14691
aI14372
aI3903
aI14019
aI7419
aI7588
aI916
aI190
aI7757
aI14539
aI3097
aI14796
aI7530
aI14701
aI6970
aI13731
aI7745
aI1820
aI7331
aI17621
aI69
aI14089
aI14546
aI7264
aI8952
aI8989
aI13890
aI14864
aI176
aI14039
aI7025
aI1885
aI935
aI14173
aI14816
aI8972
aI1847
aI14794
aI14578
aI14894
aI13967
aI14795
aI14639
aI7834
aI7451
aI14542
aI7023
aI1903
aI7561
aa(lp20
I13443
aI14503
aI13366
aI14083
aI14615
aI14647
aI14597
aI14688
aI8991
aI1960
aI14630
aI1793
aI14669
aI15083
aI3934
aI13396
aI7825
aI3694
aI15093
aI7659
aI994
aI14525
aI15352
aI13853
aI7500
aI7373
aI14913
aI922
aI14350
aI13518
aI7384
aI13353
aI1804
aI15318
aI14755
aI8984
aI7073
aI14773
aI890
aI17680
aI7403
aI3623
aI7679
aI8951
aI14908
aI15311
aI7705
aI7380
aI7478
aI15457
aI867
aI958
aI7123
aI7545
aI1832
aI7293
aI15111
aI7644
aI13663
aI14770
aI1951
aI7371
aI14435
aI1946
aI8912
aI13428
aI1904
aI7062
aI908
aI14221
aI14644
aI7176
aI14739
aI7214
aI14421
aI14768
aI7011
aI14541
aI7555
aI14396
aI15122
aI14106
aI1915
aI3506
aI6918
aI14168
aI14336
aI7166
aI15419
aI7488
aI14426
aI3791
aI1953
aI14480
aI14212
aI14630
aI7689
aI15356
aI14727
aI7764
aa(lp21
I7175
aI7547
aI13365
aI7689
aI14870
aI13369
aI3642
aI1850
aI1931
aI452
aI8945
aI7216
aI873
aI14229
aI3559
aI14517
aI14699
aI13429
aI7085
aI15384
aI7773
aI3636
aI3664
aI901
aI14537
aI3589
aI8949
aI3589
aI14024
aI14581
aI7010
aI14113
aI14267
aI14132
aI13439
aI7267
aI7602
aI13429
aI7032
aI14514
aI14932
aI7753
aI14294
aI7188
aI8989
aI3514
aI14715
aI14072
aI14077
aI7566
aI938
aI14968
aI14456
aI7260
aI7420
aI14400
aI7321
aI1790
aI14216
aI7195
aI7778
aI14940
aI6951
aI14233
aI15189
aI15333
aI3556
aI3631
aI3108
aI7144
aI14805
aI8941
aI202
aI7354
aI7563
aI7633
aI7747
aI14266
aI15343
aI7389
aI7413
aI3741
aI14166
aI3857
aI427
aI14478
aI13770
aI7812
aI14658
aI9001
aI1915
aI1847
aI14119
aI8933
aI13855
aI14204
aI14265
aI14717
aI13365
aI14817
aa(lp22
I14474
aI7369
aI8913
aI14044
aI7688
aI7620
aI3723
aI14341
aI7001
aI14756
aI14774
aI14737
aI5
aI15250
aI14662
aI7748
aI14433
aI12233
aI7341
aI7219
aI7695
aI7660
aI3863
aI15073
aI7524
aI7815
aI7648
aI14854
aI14879
aI14578
aI14324
aI13951
aI7103
aI14191
aI15299
aI15064
aI7338
aI951
aI3764
aI14581
aI3835
aI7514
aI7441
aI14806
aI15361
aI14650
aI9001
aI15056
aI7653
aI940
aI7395
aI412
aI7299
aI14907
aI14401
aI3753
aI8887
aI14017
aI7791
aI14926
aI13841
aI8960
aI7626
aI7173
aI7439
aI1842
aI7468
aI14429
aI3643
aI15260
aI3594
aI14205
aI14428
aI14051
aI3930
aI14982
aI7487
aI15219
aI7612
aI433
aI7261
aI7014
aI13982
aI7458
aI13906
aI14658
aI14113
aI8915
aI8970
aI14311
aI1978
aI14408
aI14332
aI3905
aI3644
aI14431
aI3687
aI3659
aI7175
aI15036
aa(lp23
I13364
aI459
aI3846
aI7364
aI7283
aI914
aI969
aI3530
aI7193
aI7590
aI948
aI8969
aI7115
aI3664
aI6984
aI14203
aI14939
aI13905
aI13976
aI14123
aI7065
aI14147
aI9001
aI7606
aI14905
aI14760
aI3545
aI14403
aI14217
aI14753
aI17611
aI1817
aI7122
aI3589
aI14430
aI14371
aI14358
aI7533
aI1782
aI14561
aI8989
aI14217
aI7480
aI14765
aI7676
aI7445
aI14397
aI7461
aI14017
aI7597
aI6903
aI3909
aI15001
aI14668
aI14229
aI3759
aI8956
aI75
aI13911
aI14623
aI9005
aI17602
aI1847
aI3562
aI7073
aI7133
aI14649
aI14528
aI1805
aI3572
aI7007
aI7068
aI15148
aI3860
aI15155
aI7119
aI13866
aI13414
aI14729
aI7479
aI3547
aI7775
aI7666
aI7730
aI14590
aI14307
aI15248
aI3884
aI961
aI14284
aI14149
aI15085
aI14367
aI8954
aI7704
aI14611
aI7011
aI13366
aI6964
aI15432
aa(lp24
I3666
aI3869
aI7138
aI3767
aI7604
aI428
aI14011
aI3685
aI14266
aI6946
aI13427
aI13863
aI8979
aI7085
aI7396
aI7601
aI8966
aI15218
aI3484
aI14242
aI7190
aI14853
aI7021
aI7189
aI14456
aI6922
aI17662
aI7487
aI14246
aI14434
aI3640
aI7678
aI7265
aI14607
aI14279
aI7314
aI14294
aI14260
aI7728
aI7643
aI68
aI7706
aI3715
aI17730
aI14755
aI7216
aI8944
aI7122
aI7750
aI7389
aI7215
aI7504
aI7610
aI3816
aI1832
aI13969
aI7334
aI14115
aI8957
aI7023
aI3655
aI3767
aI1803
aI15005
aI7402
aI189
aI14258
aI3761
aI6949
aI3087
aI25
aI13363
aI13950
aI7370
aI3516
aI8922
aI14045
aI953
aI14256
aI14544
aI7110
aI8966
aI14568
aI3757
aI7790
aI7645
aI7100
aI13394
aI7212
aI3636
aI14564
aI7120
aI14749
aI8940
aI8944
aI6905
aI7309
aI7511
aI3623
aI14222
aasS'experiment'
p25
(dp26
S'trialsPerAgent'
p27
I100
sS'numAgents'
p28
(lp29
I10
aI20
aI30
aI40
aI50
aI60
aI70
aI80
aI90
aI100
aI110
aI120
aI130
aI140
aI150
aI160
aI170
aI180
aI190
aI200
asS'D'
p30
(lp31
I40
aI40
aI40
aI40
aI40
aI40
aI40
aI40
aI40
aI40
aI40
aI40
aI40
aI40
aI40
aI40
aI40
aI40
aI40
aI40
aI40
aI40
aI40
aI40
aI40
aI40
aI40
aI40
aI40
aI40
assS'type'
p32
S'FKLS2'
p33
s.