(dp0
S'argsDesc'
p1
S'no args'
p2
sS'data'
p3
(lp4
(lp5
I37
aI79
aI34
aI12
aI42
aI44
aI37
aI82
aI40
aI75
aI41
aI37
aI41
aI41
aI43
aI78
aI36
aI18
aI79
aI12
aI75
aI38
aI16
aI4
aI41
aI76
aI76
aI39
aI80
aI69
aI82
aI2
aI83
aI86
aI39
aI38
aI122
aI62
aI33
aI73
aI40
aI39
aI15
aI39
aI76
aI76
aI76
aI35
aI39
aI40
aI73
aI40
aI44
aI34
aI32
aI45
aI42
aI40
aI45
aI35
aI76
aI33
aI37
aI74
aI16
aI76
aI72
aI2
aI14
aI15
aI71
aI41
aI70
aI17
aI74
aI72
aI38
aI79
aI36
aI37
aI2
aI16
aI57
aI36
aI76
aI86
aI13
aI35
aI39
aI16
aI77
aI34
aI38
aI15
aI78
aI14
aI74
aI38
aI35
aI16
aa(lp6
I43
aI82
aI77
aI16
aI127
aI86
aI35
aI77
aI131
aI78
aI38
aI15
aI86
aI77
aI72
aI74
aI36
aI109
aI90
aI136
aI76
aI79
aI85
aI86
aI79
aI14
aI85
aI42
aI13
aI83
aI76
aI14
aI77
aI40
aI84
aI74
aI137
aI80
aI91
aI38
aI38
aI70
aI80
aI2
aI123
aI79
aI69
aI83
aI71
aI36
aI83
aI75
aI77
aI87
aI65
aI39
aI44
aI84
aI79
aI79
aI37
aI87
aI39
aI14
aI77
aI84
aI37
aI79
aI77
aI85
aI13
aI88
aI92
aI76
aI41
aI15
aI77
aI89
aI13
aI59
aI77
aI78
aI81
aI78
aI82
aI37
aI77
aI80
aI77
aI35
aI89
aI13
aI83
aI84
aI15
aI91
aI45
aI80
aI91
aI84
aa(lp7
I75
aI85
aI83
aI169
aI72
aI83
aI263
aI78
aI79
aI170
aI78
aI172
aI37
aI79
aI83
aI76
aI181
aI82
aI36
aI76
aI39
aI157
aI40
aI168
aI81
aI83
aI38
aI86
aI89
aI40
aI75
aI94
aI90
aI41
aI85
aI91
aI91
aI75
aI40
aI72
aI82
aI88
aI178
aI41
aI141
aI85
aI175
aI85
aI257
aI155
aI81
aI96
aI94
aI36
aI66
aI72
aI166
aI333
aI141
aI169
aI162
aI148
aI70
aI81
aI85
aI286
aI67
aI86
aI176
aI78
aI86
aI81
aI89
aI156
aI39
aI170
aI130
aI156
aI40
aI86
aI14
aI152
aI94
aI151
aI89
aI41
aI124
aI85
aI151
aI80
aI71
aI44
aI78
aI79
aI78
aI81
aI37
aI40
aI156
aI73
aa(lp8
I85
aI178
aI174
aI172
aI158
aI161
aI90
aI74
aI147
aI295
aI76
aI90
aI197
aI85
aI146
aI136
aI154
aI78
aI165
aI80
aI260
aI39
aI170
aI16
aI166
aI83
aI77
aI63
aI148
aI167
aI160
aI188
aI152
aI44
aI164
aI156
aI75
aI142
aI72
aI83
aI167
aI257
aI144
aI15
aI163
aI147
aI155
aI273
aI78
aI130
aI93
aI178
aI141
aI79
aI74
aI84
aI159
aI97
aI74
aI92
aI149
aI89
aI75
aI86
aI87
aI121
aI154
aI72
aI167
aI78
aI37
aI340
aI164
aI184
aI151
aI165
aI272
aI78
aI40
aI37
aI162
aI18
aI91
aI77
aI85
aI16
aI165
aI116
aI160
aI156
aI37
aI94
aI80
aI166
aI159
aI79
aI69
aI87
aI160
aI175
aa(lp9
I14
aI314
aI172
aI186
aI75
aI87
aI152
aI94
aI173
aI38
aI162
aI175
aI133
aI35
aI187
aI322
aI272
aI77
aI41
aI151
aI142
aI95
aI167
aI42
aI153
aI177
aI175
aI75
aI163
aI76
aI34
aI95
aI39
aI172
aI159
aI291
aI181
aI128
aI164
aI252
aI199
aI174
aI162
aI153
aI168
aI13
aI83
aI89
aI75
aI172
aI161
aI147
aI90
aI97
aI130
aI86
aI178
aI183
aI252
aI163
aI160
aI179
aI90
aI168
aI139
aI154
aI123
aI155
aI187
aI170
aI183
aI142
aI82
aI160
aI162
aI169
aI188
aI157
aI189
aI84
aI147
aI164
aI78
aI39
aI150
aI151
aI92
aI171
aI179
aI170
aI157
aI260
aI154
aI174
aI175
aI84
aI167
aI79
aI73
aI183
aa(lp10
I177
aI170
aI165
aI301
aI173
aI136
aI290
aI38
aI136
aI596
aI181
aI587
aI178
aI157
aI167
aI171
aI309
aI597
aI180
aI174
aI335
aI151
aI183
aI295
aI84
aI189
aI179
aI75
aI78
aI198
aI372
aI74
aI185
aI310
aI150
aI310
aI162
aI191
aI171
aI75
aI320
aI86
aI286
aI308
aI186
aI229
aI180
aI181
aI297
aI161
aI179
aI309
aI41
aI175
aI73
aI285
aI37
aI168
aI176
aI94
aI168
aI183
aI172
aI197
aI171
aI175
aI351
aI166
aI83
aI179
aI145
aI174
aI177
aI319
aI73
aI17
aI84
aI193
aI34
aI71
aI192
aI263
aI185
aI366
aI200
aI315
aI135
aI166
aI178
aI160
aI272
aI178
aI151
aI378
aI348
aI349
aI174
aI170
aI184
aI148
aa(lp11
I42
aI370
aI369
aI188
aI279
aI188
aI446
aI386
aI175
aI85
aI297
aI360
aI638
aI34
aI200
aI37
aI331
aI300
aI188
aI88
aI79
aI354
aI594
aI180
aI267
aI173
aI16
aI158
aI322
aI315
aI592
aI623
aI166
aI166
aI176
aI86
aI183
aI166
aI312
aI161
aI152
aI275
aI186
aI409
aI131
aI177
aI76
aI189
aI266
aI324
aI173
aI342
aI336
aI144
aI566
aI337
aI420
aI139
aI165
aI148
aI307
aI310
aI160
aI74
aI538
aI292
aI150
aI330
aI83
aI429
aI527
aI149
aI166
aI330
aI225
aI167
aI187
aI360
aI170
aI566
aI128
aI364
aI158
aI316
aI164
aI191
aI14
aI616
aI141
aI158
aI93
aI634
aI315
aI536
aI158
aI353
aI33
aI331
aI744
aI175
aa(lp12
I298
aI234
aI321
aI327
aI341
aI569
aI148
aI370
aI191
aI346
aI147
aI543
aI154
aI171
aI378
aI395
aI143
aI78
aI169
aI331
aI88
aI167
aI333
aI128
aI328
aI395
aI164
aI328
aI569
aI285
aI159
aI162
aI191
aI333
aI75
aI648
aI254
aI631
aI355
aI555
aI316
aI14
aI168
aI557
aI164
aI402
aI580
aI369
aI341
aI349
aI332
aI603
aI258
aI304
aI166
aI352
aI388
aI404
aI348
aI319
aI36
aI153
aI175
aI84
aI185
aI297
aI170
aI331
aI332
aI210
aI577
aI1595
aI546
aI248
aI155
aI263
aI365
aI602
aI170
aI338
aI563
aI335
aI294
aI163
aI313
aI164
aI177
aI349
aI392
aI277
aI163
aI79
aI923
aI82
aI679
aI177
aI200
aI161
aI307
aI314
aa(lp13
I310
aI337
aI659
aI598
aI297
aI378
aI324
aI245
aI349
aI183
aI154
aI324
aI430
aI163
aI781
aI173
aI72
aI154
aI330
aI1224
aI506
aI160
aI341
aI339
aI146
aI332
aI405
aI180
aI355
aI58
aI171
aI160
aI446
aI580
aI811
aI355
aI406
aI167
aI661
aI390
aI171
aI347
aI339
aI680
aI90
aI189
aI286
aI334
aI366
aI357
aI432
aI671
aI249
aI82
aI373
aI165
aI331
aI1220
aI386
aI606
aI72
aI346
aI369
aI371
aI568
aI357
aI268
aI188
aI355
aI345
aI966
aI315
aI333
aI399
aI336
aI283
aI42
aI167
aI88
aI580
aI351
aI86
aI315
aI417
aI158
aI354
aI923
aI331
aI185
aI365
aI331
aI176
aI317
aI335
aI171
aI339
aI161
aI930
aI87
aI321
aa(lp14
I345
aI355
aI378
aI136
aI376
aI84
aI362
aI329
aI326
aI624
aI169
aI195
aI321
aI86
aI158
aI185
aI185
aI134
aI336
aI339
aI650
aI345
aI323
aI44
aI578
aI579
aI585
aI370
aI595
aI327
aI167
aI191
aI339
aI379
aI268
aI150
aI371
aI608
aI298
aI369
aI337
aI349
aI170
aI340
aI117
aI696
aI184
aI431
aI187
aI392
aI162
aI88
aI308
aI398
aI353
aI369
aI162
aI562
aI167
aI692
aI395
aI618
aI322
aI572
aI618
aI371
aI166
aI319
aI430
aI287
aI174
aI82
aI348
aI617
aI389
aI572
aI90
aI169
aI578
aI407
aI333
aI361
aI160
aI617
aI311
aI1252
aI302
aI665
aI336
aI367
aI179
aI150
aI81
aI178
aI327
aI360
aI459
aI975
aI354
aI190
aasS'experiment'
p15
(dp16
S'trialsPerAgent'
p17
I100
sS'numAgents'
p18
(lp19
I200
aI200
aI200
aI200
aI200
aI200
aI200
aI200
aI200
aI200
asS'D'
p20
(lp21
I10
aI15
aI20
aI25
aI30
aI35
aI40
aI45
aI50
aI55
assS'type'
p22
S'FKLS1'
p23
s.