(dp0
S'argsDesc'
p1
S'delta = 1'
p2
sS'data'
p3
(lp4
(lp5
I10
aI20
aI8
aI12
aI4
aI18
aI979
aI28
aI4
aI1190
aI42
aI1305
aI34
aI332
aI355
aI338
aI21
aI6
aI103
aI14
aI686
aI222
aI138
aI383
aI108
aI20
aI9
aI3
aI13
aI18
aI6
aI4
aI172
aI45
aI4
aI3
aI9
aI43
aI10
aI18
aI54
aI8
aI21
aI21
aI5
aI549
aI43
aI9
aI28
aI22
aI6
aI11
aI12
aI256
aI1000
aI23
aI33
aI25
aI23
aI61
aI1200
aI11
aI20
aI89
aI504
aI275
aI516
aI18
aI5
aI70
aI22
aI20
aI114
aI10
aI87
aI102
aI741
aI26
aI945
aI21
aI3
aI130
aI18
aI76
aI24
aI25
aI11
aI26
aI1348
aI10
aI522
aI14
aI25
aI23
aI125
aI8
aI21
aI79
aI22
aI51
aa(lp6
I357
aI40
aI48
aI806
aI5
aI1313
aI23
aI21
aI211
aI39
aI9
aI205
aI1337
aI154
aI105
aI14
aI508
aI10
aI30
aI2
aI1208
aI176
aI15
aI28
aI162
aI16
aI25
aI24
aI45
aI10
aI8
aI33
aI31
aI19
aI2481
aI111
aI110
aI67
aI175
aI100
aI24
aI597
aI170
aI935
aI34
aI7
aI2
aI9
aI690
aI49
aI66
aI177
aI2373
aI5
aI213
aI4
aI83
aI82
aI8
aI1363
aI1659
aI14
aI1658
aI40
aI3
aI36
aI125
aI42
aI122
aI25
aI210
aI342
aI2
aI134
aI31
aI600
aI193
aI53
aI223
aI81
aI38
aI22
aI23
aI919
aI59
aI330
aI694
aI28
aI4
aI2172
aI41
aI59
aI115
aI103
aI26
aI2973
aI55
aI45
aI211
aI9
aa(lp7
I523
aI120
aI292
aI986
aI613
aI941
aI8
aI708
aI19
aI73
aI36
aI1502
aI75
aI36
aI178
aI39
aI955
aI504
aI93
aI226
aI97
aI65
aI111
aI136
aI1178
aI1093
aI114
aI325
aI117
aI726
aI3665
aI209
aI11
aI356
aI88
aI18
aI14
aI112
aI121
aI119
aI61
aI58
aI41
aI87
aI14
aI204
aI1333
aI610
aI610
aI715
aI112
aI188
aI39
aI39
aI917
aI77
aI30
aI1969
aI51
aI117
aI1
aI164
aI183
aI394
aI59
aI236
aI26
aI834
aI229
aI111
aI42
aI398
aI38
aI344
aI106
aI486
aI66
aI70
aI51
aI6
aI520
aI18
aI121
aI287
aI121
aI23
aI1366
aI107
aI1411
aI211
aI10
aI9
aI41
aI1115
aI49
aI13
aI110
aI1022
aI817
aI1022
aa(lp8
I5526
aI1203
aI46
aI66
aI109
aI146
aI3189
aI114
aI424
aI118
aI3867
aI1741
aI87
aI741
aI112
aI32
aI1017
aI71
aI196
aI99
aI1066
aI16
aI4883
aI57
aI17
aI3369
aI1304
aI152
aI143
aI665
aI101
aI29
aI347
aI130
aI38
aI1853
aI99
aI101
aI195
aI88
aI422
aI254
aI630
aI82
aI3387
aI132
aI619
aI2765
aI1402
aI89
aI5546
aI236
aI51
aI198
aI1155
aI349
aI359
aI136
aI3324
aI71
aI135
aI418
aI5
aI443
aI2369
aI513
aI13
aI184
aI925
aI3671
aI56
aI45
aI1505
aI8
aI45
aI24
aI143
aI200
aI124
aI2952
aI85
aI108
aI61
aI1185
aI272
aI41
aI933
aI6
aI61
aI39
aI64
aI35
aI1828
aI147
aI162
aI1351
aI425
aI929
aI30
aI3187
aa(lp9
I584
aI124
aI42
aI857
aI559
aI74
aI73
aI1822
aI12
aI148
aI602
aI174
aI273
aI188
aI78
aI236
aI1658
aI4920
aI412
aI839
aI394
aI85
aI51
aI1139
aI8441
aI46
aI222
aI599
aI98
aI14
aI5
aI673
aI4729
aI5269
aI598
aI5666
aI962
aI716
aI132
aI1309
aI742
aI1557
aI282
aI834
aI41
aI99
aI1710
aI342
aI66
aI140
aI144
aI4147
aI165
aI144
aI861
aI713
aI2148
aI85
aI314
aI2080
aI1993
aI1856
aI29
aI324
aI69
aI6861
aI406
aI28
aI713
aI418
aI6174
aI2
aI114
aI84
aI71
aI121
aI1981
aI42
aI118
aI103
aI3028
aI445
aI5
aI1067
aI4055
aI460
aI38
aI126
aI125
aI2119
aI577
aI140
aI1749
aI377
aI195
aI51
aI161
aI549
aI4723
aI603
aa(lp10
I66
aI161
aI3540
aI1782
aI3201
aI1677
aI242
aI3813
aI562
aI406
aI465
aI900
aI158
aI196
aI736
aI61
aI274
aI25
aI106
aI1257
aI443
aI128
aI1388
aI2613
aI235
aI2576
aI1026
aI482
aI5
aI125
aI728
aI385
aI2258
aI760
aI1192
aI194
aI9985
aI726
aI1069
aI17
aI113
aI1557
aI49
aI2454
aI70
aI451
aI228
aI551
aI472
aI417
aI2502
aI666
aI91
aI1076
aI3725
aI144
aI7484
aI720
aI133
aI542
aI3626
aI1059
aI1427
aI2071
aI1028
aI505
aI7163
aI257
aI521
aI7221
aI81
aI5
aI246
aI2978
aI3104
aI2576
aI1192
aI1367
aI1200
aI12
aI127
aI266
aI293
aI135
aI2100
aI4726
aI522
aI82
aI650
aI526
aI11651
aI2526
aI3523
aI1902
aI430
aI78
aI421
aI335
aI6850
aI2453
aa(lp11
I1345
aI148
aI240
aI5499
aI244
aI452
aI84
aI8935
aI394
aI403
aI35
aI168
aI312
aI13416
aI4331
aI4432
aI256
aI1896
aI165
aI4548
aI412
aI137
aI1586
aI316
aI193
aI386
aI96
aI4809
aI844
aI7
aI90
aI1323
aI475
aI9362
aI3702
aI3141
aI149
aI390
aI803
aI353
aI3175
aI8558
aI324
aI637
aI80
aI114
aI42
aI2223
aI415
aI1046
aI708
aI4426
aI15106
aI4461
aI531
aI716
aI69
aI470
aI602
aI87
aI2257
aI58
aI151
aI615
aI2383
aI32
aI81
aI2031
aI1475
aI228
aI299
aI131
aI194
aI312
aI916
aI49
aI1621
aI74
aI4425
aI3682
aI4469
aI2799
aI1316
aI1648
aI711
aI756
aI2942
aI5700
aI630
aI417
aI3405
aI12969
aI66
aI1141
aI223
aI1553
aI1383
aI5278
aI3905
aI2616
aa(lp12
I62
aI6188
aI617
aI2351
aI8
aI13100
aI3874
aI342
aI237
aI323
aI2
aI253
aI4406
aI494
aI206
aI58
aI4657
aI2283
aI1133
aI785
aI1657
aI229
aI276
aI17062
aI4772
aI512
aI790
aI5
aI399
aI489
aI918
aI578
aI979
aI1382
aI648
aI164
aI117
aI969
aI4404
aI5939
aI626
aI807
aI1214
aI78
aI353
aI7337
aI815
aI392
aI329
aI317
aI45
aI263
aI20083
aI86
aI1998
aI19
aI28
aI367
aI33
aI980
aI163
aI5382
aI264
aI494
aI2296
aI903
aI1654
aI332
aI5042
aI12059
aI203
aI318
aI12193
aI111
aI4748
aI232
aI987
aI663
aI362
aI133
aI10976
aI531
aI3640
aI1531
aI45
aI5356
aI738
aI1622
aI9499
aI957
aI1619
aI538
aI2213
aI1095
aI642
aI2736
aI4246
aI42
aI319
aI18
aa(lp13
I164
aI317
aI84
aI8338
aI10032
aI3362
aI1197
aI2727
aI228
aI983
aI487
aI337
aI1089
aI5847
aI125
aI725
aI4748
aI1687
aI6803
aI716
aI22094
aI2448
aI6164
aI12829
aI1274
aI4192
aI1204
aI3896
aI2744
aI903
aI5556
aI823
aI1060
aI577
aI20906
aI1254
aI63
aI1794
aI10515
aI697
aI1099
aI1242
aI983
aI734
aI559
aI168
aI647
aI524
aI3707
aI865
aI4404
aI1583
aI1286
aI291
aI1876
aI6013
aI27
aI419
aI1252
aI3852
aI310
aI142
aI1284
aI1278
aI2343
aI762
aI48
aI5764
aI526
aI131
aI2153
aI1219
aI733
aI121
aI5570
aI10845
aI131
aI47
aI2456
aI1053
aI161
aI137
aI914
aI18408
aI1518
aI8921
aI796
aI212
aI115
aI680
aI5848
aI342
aI5244
aI683
aI1275
aI855
aI693
aI5082
aI329
aI20449
aa(lp14
I483
aI101
aI3024
aI2450
aI792
aI14
aI6521
aI10222
aI574
aI3788
aI124
aI1477
aI584
aI2515
aI437
aI183
aI369
aI626
aI741
aI814
aI181
aI351
aI3312
aI2343
aI2806
aI956
aI1064
aI240
aI5398
aI18058
aI152
aI3172
aI1973
aI1050
aI1707
aI2153
aI7288
aI55
aI778
aI267
aI1676
aI1463
aI1280
aI1466
aI6696
aI1188
aI1620
aI1701
aI4417
aI4303
aI248
aI5867
aI6695
aI1219
aI1695
aI8214
aI796
aI6
aI1118
aI72
aI12476
aI3790
aI5007
aI1882
aI2795
aI431
aI2567
aI527
aI1033
aI656
aI1563
aI3235
aI824
aI4365
aI993
aI263
aI3407
aI273
aI320
aI640
aI2765
aI8778
aI8377
aI11671
aI1163
aI4405
aI332
aI1897
aI201
aI62
aI3748
aI640
aI1110
aI325
aI1310
aI186
aI207
aI5856
aI2763
aI665
aasS'experiment'
p15
(dp16
S'trialsPerAgent'
p17
I100
sS'numAgents'
p18
(lp19
I200
aI200
aI200
aI200
aI200
aI200
aI200
aI200
aI200
aI200
asS'D'
p20
(lp21
I10
aI15
aI20
aI25
aI30
aI35
aI40
aI45
aI50
aI55
assS'type'
p22
S'HarmonicSearch'
p23
s.