(dp0
S'argsDesc'
p1
S'delta = 1'
p2
sS'data'
p3
(lp4
(lp5
I150
aI132
aI32
aI161
aI17
aI226
aI36
aI70
aI4
aI154
aI101
aI1268
aI1601
aI333
aI222
aI57
aI160
aI92
aI248
aI11
aI56
aI323
aI20
aI263
aI13
aI272
aI57
aI135
aI613
aI920
aI145
aI21
aI205
aI82
aI38
aI176
aI37
aI11
aI343
aI370
aI293
aI933
aI364
aI98
aI762
aI180
aI101
aI145
aI5
aI92
aI20
aI2
aI228
aI30
aI209
aI210
aI154
aI28
aI55
aI153
aI61
aI213
aI5
aI81
aI619
aI965
aI728
aI71
aI121
aI47
aI236
aI34
aI53
aI65
aI2997
aI3041
aI29
aI509
aI399
aI188
aI7
aI1862
aI245
aI45
aI6
aI2272
aI40
aI131
aI5
aI371
aI474
aI56
aI59
aI127
aI64
aI893
aI900
aI19
aI285
aI515
aa(lp6
I79
aI36
aI59
aI51
aI96
aI502
aI44
aI2153
aI27
aI215
aI6
aI88
aI39
aI670
aI34
aI196
aI7
aI17
aI21
aI53
aI11
aI736
aI543
aI274
aI95
aI9
aI63
aI16
aI490
aI33
aI54
aI949
aI110
aI5
aI219
aI2
aI109
aI10
aI132
aI1185
aI267
aI156
aI122
aI340
aI84
aI15
aI7
aI119
aI124
aI41
aI14
aI167
aI125
aI2787
aI224
aI27
aI1
aI300
aI18
aI57
aI4
aI444
aI113
aI558
aI165
aI927
aI16
aI359
aI343
aI11
aI68
aI17
aI90
aI183
aI3
aI124
aI122
aI34
aI273
aI424
aI86
aI346
aI2
aI121
aI86
aI24
aI6
aI42
aI79
aI46
aI57
aI30
aI87
aI1223
aI624
aI195
aI1105
aI22
aI5
aI126
aa(lp7
I61
aI32
aI1198
aI22
aI825
aI161
aI271
aI53
aI1
aI6
aI215
aI24
aI393
aI43
aI2312
aI47
aI234
aI3
aI15
aI110
aI115
aI276
aI4
aI94
aI56
aI93
aI43
aI20
aI12
aI890
aI1344
aI4
aI25
aI874
aI76
aI650
aI162
aI122
aI126
aI287
aI1678
aI137
aI518
aI25
aI43
aI315
aI33
aI354
aI611
aI7
aI7
aI68
aI713
aI119
aI55
aI686
aI67
aI3
aI8
aI82
aI80
aI10
aI79
aI682
aI34
aI61
aI116
aI21
aI31
aI97
aI58
aI784
aI123
aI399
aI112
aI48
aI470
aI68
aI275
aI39
aI425
aI89
aI233
aI4
aI39
aI46
aI641
aI18
aI1564
aI83
aI1330
aI19
aI270
aI15
aI5
aI5
aI344
aI199
aI108
aI220
aa(lp8
I30
aI12
aI35
aI5
aI52
aI19
aI270
aI100
aI164
aI22
aI268
aI284
aI85
aI37
aI745
aI10
aI43
aI33
aI39
aI39
aI873
aI118
aI18
aI5
aI19
aI122
aI10
aI1998
aI9
aI5
aI35
aI8
aI4
aI129
aI28
aI48
aI50
aI17
aI42
aI328
aI39
aI170
aI1210
aI9
aI170
aI655
aI33
aI3
aI1
aI350
aI35
aI111
aI21
aI53
aI301
aI86
aI78
aI104
aI7
aI19
aI262
aI21
aI54
aI41
aI66
aI406
aI1181
aI920
aI5
aI5
aI336
aI26
aI24
aI340
aI9
aI101
aI14
aI23
aI5
aI84
aI8
aI90
aI68
aI113
aI18
aI3
aI8
aI17
aI76
aI34
aI20
aI22
aI81
aI118
aI23
aI103
aI10
aI53
aI50
aI125
aa(lp9
I44
aI15
aI2
aI60
aI52
aI37
aI3
aI226
aI17
aI4
aI82
aI38
aI41
aI806
aI587
aI256
aI22
aI55
aI114
aI7
aI7
aI4
aI6
aI71
aI18
aI9
aI1281
aI79
aI133
aI344
aI357
aI25
aI3
aI58
aI696
aI551
aI338
aI61
aI206
aI6
aI419
aI21
aI88
aI21
aI733
aI16
aI43
aI263
aI6
aI610
aI84
aI4
aI156
aI951
aI432
aI489
aI7
aI1168
aI426
aI10
aI1353
aI71
aI21
aI5
aI690
aI36
aI8
aI10
aI110
aI969
aI138
aI75
aI4
aI43
aI79
aI46
aI10
aI82
aI38
aI43
aI250
aI5
aI183
aI51
aI20
aI334
aI80
aI14
aI8
aI5
aI198
aI111
aI54
aI73
aI29
aI75
aI21
aI377
aI63
aI147
aa(lp10
I88
aI46
aI206
aI223
aI47
aI5
aI3
aI9
aI23
aI2
aI111
aI25
aI142
aI53
aI1182
aI5
aI74
aI81
aI45
aI105
aI56
aI346
aI14
aI7
aI2
aI511
aI40
aI7
aI4
aI1574
aI1389
aI68
aI12
aI223
aI68
aI1045
aI47
aI75
aI5
aI107
aI7
aI42
aI17
aI59
aI5
aI353
aI36
aI16
aI51
aI127
aI17
aI52
aI53
aI422
aI24
aI45
aI3
aI6
aI814
aI112
aI68
aI228
aI213
aI109
aI9
aI3
aI99
aI21
aI38
aI182
aI5
aI15
aI11
aI16
aI21
aI113
aI31
aI1726
aI58
aI2
aI1472
aI45
aI79
aI103
aI9
aI81
aI6
aI1065
aI749
aI14
aI7
aI208
aI211
aI8
aI206
aI341
aI47
aI15
aI16
aI59
aa(lp11
I60
aI58
aI125
aI50
aI43
aI623
aI100
aI6
aI328
aI55
aI84
aI207
aI95
aI12
aI1
aI20
aI88
aI72
aI42
aI90
aI341
aI1341
aI12
aI100
aI418
aI10
aI927
aI546
aI17
aI5
aI6
aI8
aI21
aI45
aI3
aI4
aI3
aI22
aI42
aI38
aI7
aI21
aI833
aI18
aI138
aI185
aI285
aI47
aI300
aI24
aI7
aI2
aI29
aI29
aI26
aI43
aI101
aI1111
aI20
aI944
aI10
aI4
aI2
aI6
aI351
aI66
aI26
aI1309
aI13
aI158
aI690
aI238
aI17
aI220
aI355
aI149
aI604
aI20
aI24
aI89
aI31
aI33
aI33
aI2
aI22
aI203
aI7
aI23
aI34
aI7
aI3
aI111
aI59
aI125
aI69
aI19
aI22
aI861
aI201
aI7
aa(lp12
I14
aI66
aI32
aI50
aI508
aI65
aI1411
aI81
aI5
aI2187
aI964
aI19
aI14
aI13
aI144
aI595
aI7
aI45
aI499
aI171
aI35
aI123
aI9
aI277
aI196
aI1283
aI734
aI52
aI21
aI76
aI43
aI14
aI34
aI1
aI53
aI550
aI1
aI9
aI19
aI13
aI38
aI11
aI15
aI98
aI138
aI123
aI36
aI6
aI34
aI8
aI5
aI6
aI112
aI44
aI14
aI351
aI161
aI354
aI44
aI9
aI74
aI100
aI30
aI83
aI4
aI33
aI370
aI4
aI20
aI45
aI698
aI10
aI289
aI28
aI7
aI40
aI26
aI109
aI210
aI1014
aI42
aI24
aI23
aI4
aI44
aI351
aI35
aI10
aI17
aI12
aI23
aI66
aI19
aI32
aI1483
aI128
aI48
aI357
aI17
aI8
aa(lp13
I207
aI218
aI370
aI935
aI654
aI124
aI25
aI9
aI8
aI112
aI9
aI75
aI58
aI10
aI81
aI15
aI24
aI250
aI721
aI28
aI237
aI6
aI28
aI802
aI158
aI7
aI17
aI8
aI1063
aI1307
aI86
aI224
aI86
aI27
aI21
aI8
aI16
aI20
aI46
aI112
aI44
aI169
aI64
aI21
aI60
aI16
aI13
aI4
aI5
aI408
aI284
aI36
aI48
aI88
aI45
aI267
aI334
aI6
aI53
aI9
aI86
aI4
aI43
aI27
aI1418
aI299
aI128
aI230
aI2
aI4
aI3
aI15
aI10
aI1209
aI29
aI140
aI17
aI212
aI12
aI190
aI11
aI6
aI37
aI5
aI7
aI8
aI236
aI9
aI19
aI812
aI26
aI5
aI748
aI1800
aI681
aI92
aI7
aI2261
aI10
aI1059
aa(lp14
I935
aI274
aI7
aI63
aI114
aI30
aI41
aI30
aI23
aI14
aI42
aI1468
aI3
aI46
aI34
aI32
aI5
aI27
aI185
aI24
aI526
aI49
aI99
aI812
aI21
aI6
aI371
aI32
aI97
aI14
aI989
aI341
aI17
aI44
aI6
aI792
aI38
aI73
aI197
aI65
aI32
aI15
aI252
aI18
aI828
aI11
aI81
aI204
aI75
aI28
aI40
aI341
aI8
aI9
aI71
aI11
aI140
aI170
aI945
aI134
aI1
aI125
aI47
aI21
aI22
aI8
aI22
aI45
aI33
aI74
aI139
aI690
aI96
aI86
aI21
aI7
aI47
aI8
aI210
aI25
aI2
aI212
aI8
aI32
aI5
aI4
aI939
aI22
aI102
aI20
aI25
aI8
aI45
aI108
aI924
aI1198
aI207
aI157
aI18
aI211
aa(lp15
I60
aI32
aI6
aI4
aI94
aI37
aI159
aI31
aI71
aI13
aI3
aI6
aI180
aI18
aI233
aI6
aI108
aI5
aI5
aI8
aI1182
aI14
aI27
aI1
aI22
aI44
aI10
aI96
aI23
aI22
aI341
aI69
aI10
aI33
aI96
aI363
aI126
aI340
aI6
aI345
aI61
aI9
aI922
aI22
aI66
aI84
aI4
aI2
aI10
aI3
aI14
aI4
aI76
aI860
aI6
aI11
aI32
aI273
aI110
aI373
aI45
aI1431
aI207
aI44
aI55
aI197
aI5
aI20
aI34
aI38
aI72
aI431
aI5
aI2
aI8
aI9
aI771
aI13
aI47
aI31
aI208
aI8
aI41
aI43
aI36
aI24
aI23
aI6
aI28
aI5
aI726
aI47
aI4
aI6
aI1220
aI1951
aI6
aI99
aI1413
aI9
aa(lp16
I20
aI52
aI115
aI10
aI23
aI413
aI24
aI228
aI9
aI6
aI55
aI8
aI12
aI24
aI53
aI1955
aI4
aI43
aI8
aI42
aI22
aI115
aI60
aI50
aI98
aI1148
aI23
aI49
aI399
aI19
aI30
aI195
aI46
aI342
aI23
aI32
aI11
aI33
aI4
aI88
aI57
aI15
aI25
aI222
aI804
aI1294
aI56
aI19
aI102
aI51
aI28
aI17
aI22
aI23
aI75
aI19
aI66
aI508
aI214
aI25
aI692
aI34
aI1215
aI411
aI8
aI43
aI923
aI70
aI20
aI45
aI849
aI4
aI810
aI19
aI50
aI9
aI48
aI15
aI6
aI90
aI12
aI9
aI367
aI384
aI10
aI11
aI380
aI36
aI213
aI230
aI27
aI37
aI8
aI58
aI0
aI8
aI10
aI40
aI114
aI118
aa(lp17
I87
aI216
aI192
aI11
aI213
aI24
aI4
aI342
aI229
aI5
aI22
aI73
aI46
aI23
aI7
aI74
aI41
aI28
aI59
aI0
aI43
aI2
aI3
aI257
aI211
aI5
aI37
aI197
aI5
aI1007
aI4
aI56
aI36
aI12
aI41
aI234
aI9
aI9
aI43
aI351
aI345
aI14
aI73
aI275
aI11
aI1539
aI9
aI235
aI26
aI43
aI88
aI17
aI109
aI72
aI116
aI3
aI5
aI7
aI9
aI16
aI74
aI88
aI3
aI7
aI5
aI39
aI4
aI10
aI140
aI94
aI1342
aI12
aI11
aI515
aI10
aI178
aI19
aI8
aI4
aI137
aI8
aI320
aI8
aI14
aI943
aI10
aI113
aI802
aI59
aI49
aI79
aI22
aI40
aI13
aI7
aI641
aI30
aI11
aI2
aI23
aa(lp18
I12
aI919
aI43
aI124
aI79
aI1767
aI430
aI44
aI409
aI1332
aI115
aI330
aI23
aI1
aI37
aI158
aI49
aI54
aI76
aI4
aI144
aI743
aI18
aI31
aI8
aI686
aI9
aI33
aI11
aI195
aI46
aI694
aI7
aI154
aI112
aI47
aI21
aI8
aI203
aI8
aI23
aI501
aI4
aI876
aI18
aI9
aI75
aI3
aI71
aI1333
aI8
aI9
aI340
aI70
aI5
aI54
aI10
aI271
aI36
aI235
aI9
aI755
aI349
aI9
aI35
aI212
aI90
aI3
aI290
aI14
aI23
aI8
aI17
aI45
aI4
aI38
aI3
aI127
aI147
aI599
aI9
aI106
aI24
aI466
aI407
aI199
aI68
aI74
aI961
aI18
aI11
aI26
aI42
aI64
aI7
aI518
aI5
aI9
aI29
aI9
aa(lp19
I37
aI26
aI8
aI16
aI8
aI113
aI10
aI702
aI215
aI54
aI932
aI69
aI127
aI98
aI0
aI16
aI632
aI19
aI30
aI1
aI102
aI50
aI15
aI17
aI111
aI47
aI6
aI158
aI211
aI103
aI208
aI5
aI11
aI772
aI702
aI85
aI29
aI17
aI32
aI15
aI2149
aI970
aI6
aI112
aI39
aI72
aI18
aI21
aI66
aI810
aI13
aI57
aI15
aI6
aI12
aI87
aI74
aI63
aI46
aI126
aI2
aI37
aI1452
aI60
aI180
aI308
aI383
aI210
aI7
aI207
aI2081
aI109
aI113
aI45
aI21
aI24
aI81
aI9
aI12
aI9
aI14
aI11
aI954
aI951
aI44
aI22
aI75
aI17
aI3
aI11
aI12
aI1385
aI12
aI235
aI342
aI788
aI3
aI1320
aI73
aI114
aa(lp20
I10
aI935
aI9
aI38
aI10
aI14
aI599
aI4
aI338
aI4
aI26
aI6
aI9
aI539
aI33
aI9
aI9
aI46
aI226
aI65
aI20
aI340
aI1633
aI0
aI6
aI368
aI45
aI154
aI22
aI692
aI43
aI10
aI30
aI750
aI717
aI75
aI510
aI7
aI123
aI6
aI111
aI40
aI8
aI346
aI49
aI6
aI46
aI221
aI4
aI19
aI21
aI22
aI209
aI7
aI5
aI16
aI40
aI23
aI6
aI48
aI1994
aI7
aI68
aI75
aI6
aI4
aI82
aI6
aI13
aI8
aI330
aI9
aI22
aI35
aI40
aI23
aI7
aI127
aI11
aI3
aI18
aI8
aI1
aI2
aI45
aI242
aI932
aI3
aI35
aI8
aI10
aI17
aI9
aI833
aI71
aI87
aI4
aI269
aI65
aI15
aa(lp21
I721
aI11
aI110
aI57
aI46
aI27
aI17
aI4
aI66
aI32
aI5
aI14
aI5
aI33
aI9
aI273
aI80
aI38
aI8
aI76
aI185
aI44
aI115
aI78
aI8
aI46
aI699
aI11
aI1585
aI38
aI22
aI24
aI1011
aI9
aI10
aI506
aI9
aI19
aI8
aI74
aI47
aI7
aI15
aI357
aI6
aI14
aI286
aI88
aI57
aI49
aI353
aI7
aI19
aI36
aI5
aI222
aI9
aI15
aI209
aI15
aI16
aI39
aI59
aI1337
aI8
aI602
aI108
aI45
aI19
aI16
aI22
aI139
aI10
aI164
aI8
aI18
aI171
aI1457
aI23
aI1960
aI917
aI18
aI18
aI31
aI209
aI44
aI89
aI45
aI759
aI1548
aI211
aI6
aI5
aI4
aI18
aI9
aI12
aI85
aI10
aI790
aa(lp22
I10
aI7
aI78
aI3
aI30
aI30
aI29
aI10
aI209
aI24
aI18
aI8
aI17
aI5
aI14
aI931
aI299
aI70
aI158
aI39
aI52
aI209
aI20
aI5
aI7
aI10
aI43
aI12
aI18
aI42
aI38
aI7
aI249
aI15
aI22
aI7
aI239
aI3
aI61
aI700
aI336
aI15
aI23
aI44
aI595
aI157
aI37
aI514
aI114
aI237
aI379
aI493
aI9
aI14
aI10
aI28
aI36
aI36
aI11
aI19
aI25
aI74
aI25
aI30
aI8
aI158
aI3
aI2
aI315
aI621
aI685
aI5
aI336
aI10
aI201
aI7
aI16
aI22
aI227
aI24
aI2
aI24
aI355
aI9
aI32
aI6
aI23
aI6
aI9
aI696
aI90
aI26
aI10
aI45
aI251
aI28
aI10
aI75
aI9
aI8
aa(lp23
I8
aI68
aI88
aI6
aI22
aI1218
aI10
aI145
aI33
aI205
aI8
aI30
aI210
aI812
aI33
aI381
aI5
aI45
aI10
aI11
aI10
aI112
aI24
aI1
aI14
aI45
aI217
aI4
aI114
aI7
aI23
aI1168
aI345
aI516
aI5
aI35
aI4
aI3
aI20
aI7
aI10
aI48
aI12
aI19
aI66
aI1
aI112
aI41
aI45
aI2
aI730
aI3
aI4
aI168
aI112
aI86
aI7
aI23
aI11
aI110
aI152
aI11
aI211
aI4
aI7
aI35
aI8
aI4
aI36
aI25
aI8
aI1192
aI53
aI11
aI18
aI7
aI6
aI19
aI7
aI10
aI5
aI217
aI40
aI2091
aI6
aI8
aI17
aI8
aI2
aI1344
aI106
aI15
aI2
aI46
aI12
aI10
aI0
aI3
aI11
aI6
aa(lp24
I8
aI1985
aI3
aI512
aI37
aI59
aI3
aI5
aI112
aI6
aI13
aI44
aI716
aI9
aI237
aI45
aI1657
aI9
aI6
aI401
aI4
aI7
aI8
aI86
aI15
aI139
aI3
aI507
aI6
aI22
aI77
aI9
aI10
aI87
aI23
aI9
aI11
aI72
aI21
aI20
aI84
aI1263
aI64
aI16
aI211
aI5
aI7
aI211
aI23
aI43
aI27
aI10
aI21
aI10
aI16
aI17
aI14
aI5
aI1572
aI14
aI154
aI7
aI5
aI8
aI13
aI4
aI52
aI351
aI6
aI45
aI960
aI1343
aI12
aI32
aI25
aI15
aI9
aI12
aI19
aI215
aI222
aI743
aI1350
aI156
aI18
aI508
aI13
aI31
aI5
aI3
aI8
aI36
aI11
aI2
aI4
aI7
aI48
aI17
aI8
aI17
aasS'experiment'
p25
(dp26
S'trialsPerAgent'
p27
I100
sS'numAgents'
p28
(lp29
I10
aI20
aI30
aI40
aI50
aI60
aI70
aI80
aI90
aI100
aI110
aI120
aI130
aI140
aI150
aI160
aI170
aI180
aI190
aI200
asS'D'
p30
(lp31
I10
aI10
aI10
aI10
aI10
aI10
aI10
aI10
aI10
aI10
aI10
aI10
aI10
aI10
aI10
aI10
aI10
aI10
aI10
aI10
aI10
aI10
aI10
aI10
aI10
aI10
aI10
aI10
aI10
aI10
assS'type'
p32
S'HarmonicSearch'
p33
s.