(dp0
S'argsDesc'
p1
S'K = 1'
p2
sS'data'
p3
(lp4
(lp5
I10577
aI10853
aI3262
aI31
aI1135
aI87
aI22332
aI34
aI8098
aI93
aI1273
aI1
aI1027
aI1203
aI1005
aI1979
aI6010
aI1741
aI1073
aI9854
aI7
aI6588
aI419
aI2
aI214
aI126
aI6338
aI2032
aI55
aI746
aI2
aI25
aI28
aI1400
aI1438
aI612
aI2110
aI4
aI350
aI33
aI1566
aI544
aI287
aI2108
aI3694
aI269
aI37389
aI470
aI424
aI2208
aI2779
aI143
aI8063
aI1413
aI1703
aI42675
aI498
aI0
aI2283
aI131
aI908
aI9946
aI2356
aI4466
aI117
aI6
aI1041
aI2358
aI3862
aI108
aI1598
aI347
aI4577
aI52
aI9
aI815
aI31
aI264
aI578
aI6
aI6654
aI4620
aI28
aI6294
aI6
aI5631
aI18603
aI45918
aI2
aI475
aI18304
aI1946
aI27
aI153
aI316
aI1992
aI7245
aI7182
aI22
aI421
aa(lp6
I2
aI370
aI741
aI13
aI14
aI694
aI409
aI3097
aI16139
aI668
aI1702
aI1152
aI1174
aI74
aI2514
aI9028
aI508
aI7130
aI602
aI653
aI52
aI3371
aI2
aI18583
aI47
aI16
aI387
aI284
aI20
aI481
aI86
aI287
aI1213
aI125
aI3610
aI40
aI349
aI35026
aI1860
aI6
aI318
aI24
aI202
aI65
aI711
aI447
aI5
aI3231
aI318
aI11057
aI59
aI27
aI12293
aI18
aI1
aI1053
aI952
aI23
aI1088
aI1342
aI21
aI2820
aI1169
aI95
aI12069
aI1702
aI1444
aI193
aI4815
aI307
aI2452
aI149
aI64
aI1199
aI846
aI3089
aI176
aI126
aI37
aI9595
aI1603
aI49
aI3559
aI1043
aI3591
aI3
aI15
aI6865
aI282
aI2569
aI101
aI755
aI4
aI1369
aI511
aI23
aI11
aI289
aI2938
aI6172
aa(lp7
I421
aI108
aI51
aI149
aI167
aI71
aI35
aI7577
aI1
aI310
aI113
aI664
aI7471
aI117
aI1788
aI2678
aI34
aI23
aI153
aI5582
aI122
aI10665
aI20
aI4514
aI372
aI260
aI2
aI664
aI160
aI1110
aI61
aI458
aI12
aI263
aI35
aI177
aI218
aI5458
aI4180
aI108
aI528
aI8
aI142
aI22
aI1862
aI24
aI393
aI236
aI17
aI58
aI7103
aI47
aI23255
aI5593
aI140
aI35
aI38
aI72
aI540
aI14
aI294
aI224
aI42
aI7
aI247
aI27
aI4993
aI5
aI1942
aI98
aI610
aI3
aI7
aI1024
aI4580
aI8
aI2992
aI458
aI25
aI93
aI1270
aI4778
aI792
aI86
aI4355
aI899
aI2
aI198
aI14
aI4271
aI2085
aI72
aI610
aI23
aI1407
aI6142
aI1381
aI196
aI12
aI4181
aa(lp8
I711
aI14187
aI548
aI6916
aI4449
aI733
aI24
aI72
aI416
aI50
aI846
aI773
aI93
aI3
aI15
aI2879
aI385
aI3266
aI12
aI1081
aI5
aI6598
aI197
aI358
aI3465
aI3498
aI2040
aI812
aI83
aI100
aI1793
aI8
aI6
aI632
aI400
aI1824
aI22
aI206
aI192
aI45
aI37
aI66
aI1870
aI109
aI74
aI42
aI4034
aI1394
aI281
aI117
aI149
aI8920
aI12
aI7
aI6
aI1537
aI2980
aI3054
aI4
aI3
aI70
aI578
aI893
aI1251
aI2
aI47
aI876
aI446
aI325
aI42
aI3
aI21
aI34
aI38
aI23
aI1
aI5
aI1
aI4458
aI120
aI157
aI186
aI96
aI117
aI914
aI56
aI58
aI1146
aI13
aI111
aI52
aI13
aI402
aI2
aI13
aI110
aI2
aI7991
aI158
aI85
aa(lp9
I548
aI8
aI140
aI136
aI131
aI364
aI29
aI4
aI50
aI38
aI3
aI324
aI157
aI737
aI3
aI5192
aI82
aI323
aI1
aI391
aI329
aI4665
aI269
aI48
aI24
aI235
aI971
aI36
aI14
aI4197
aI64
aI21
aI106
aI4
aI2568
aI3
aI540
aI53
aI22
aI123
aI333
aI3
aI250
aI216
aI387
aI4
aI25
aI181
aI196
aI18
aI127
aI1007
aI23
aI108
aI400
aI90
aI1133
aI25
aI305
aI2
aI8
aI188
aI43
aI1229
aI248
aI28
aI653
aI953
aI4
aI3
aI44
aI10
aI67
aI792
aI79
aI20
aI23
aI404
aI62
aI173
aI14
aI342
aI413
aI21
aI1114
aI5614
aI26
aI6849
aI92
aI7738
aI1691
aI30
aI1501
aI40
aI58
aI1449
aI4
aI40
aI31
aI6900
aa(lp10
I2596
aI520
aI149
aI290
aI8
aI91
aI11
aI2544
aI17
aI2
aI3
aI258
aI1099
aI16
aI88
aI12
aI25
aI286
aI325
aI8
aI730
aI170
aI116
aI10
aI9
aI2
aI1948
aI208
aI123
aI10
aI364
aI31
aI27
aI435
aI7639
aI1520
aI97
aI466
aI71
aI2
aI2
aI17
aI11
aI97
aI15
aI24
aI8
aI134
aI6749
aI43
aI18
aI85
aI38
aI201
aI9
aI117
aI10
aI12
aI23
aI5164
aI139
aI517
aI75
aI161
aI1338
aI1
aI70
aI119
aI1163
aI358
aI5
aI1
aI120
aI618
aI233
aI5
aI705
aI26
aI1
aI42
aI213
aI1845
aI91
aI5
aI3644
aI738
aI47
aI104
aI27
aI387
aI280
aI174
aI4418
aI10
aI528
aI65
aI793
aI79
aI25
aI9
aa(lp11
I13
aI2092
aI6585
aI8
aI2
aI11
aI6
aI390
aI3161
aI14
aI3
aI32
aI3
aI23
aI499
aI79
aI4
aI161
aI696
aI38
aI1
aI3485
aI611
aI13
aI857
aI1
aI7
aI15
aI1854
aI8
aI79
aI58
aI16
aI1118
aI385
aI500
aI7
aI52
aI994
aI0
aI852
aI33
aI26
aI2111
aI8
aI51
aI121
aI3607
aI91
aI16
aI310
aI1739
aI104
aI26
aI203
aI1659
aI8
aI1372
aI300
aI67
aI43
aI73
aI330
aI29
aI347
aI1828
aI229
aI1
aI11
aI90
aI4
aI68
aI1109
aI19
aI3772
aI2
aI246
aI44
aI8
aI41
aI235
aI105
aI6
aI3478
aI499
aI40
aI8312
aI579
aI5320
aI746
aI33
aI14
aI3132
aI3
aI78
aI64
aI91
aI171
aI5516
aI2162
aa(lp12
I103
aI3
aI176
aI185
aI46
aI4
aI34
aI23
aI73
aI42
aI3
aI34
aI4
aI62
aI17
aI4
aI1231
aI23
aI20
aI471
aI205
aI1354
aI4
aI2
aI7
aI5
aI78
aI4
aI21
aI1
aI7
aI17
aI2305
aI276
aI28
aI40
aI63
aI69
aI2413
aI878
aI5
aI2
aI290
aI3239
aI350
aI72
aI3
aI402
aI677
aI4
aI4
aI5
aI33
aI27
aI37
aI452
aI1937
aI9
aI31
aI27
aI17
aI20
aI6456
aI6
aI34
aI6
aI13
aI127
aI193
aI17
aI128
aI23
aI175
aI48
aI260
aI14
aI408
aI5
aI1601
aI5
aI4277
aI32
aI924
aI20
aI2131
aI3433
aI3
aI147
aI621
aI149
aI7
aI4
aI757
aI5
aI17
aI3
aI3103
aI181
aI9
aI6
aa(lp13
I60
aI21
aI214
aI22
aI23
aI3
aI723
aI21
aI445
aI279
aI2274
aI215
aI794
aI18
aI35
aI186
aI70
aI1251
aI146
aI50
aI2
aI15352
aI72
aI38
aI239
aI4
aI1
aI4
aI537
aI1261
aI214
aI8
aI80
aI10
aI76
aI43
aI4
aI8
aI1033
aI30
aI172
aI754
aI4
aI42
aI319
aI100
aI4603
aI45
aI1505
aI9427
aI1831
aI9
aI35
aI1
aI157
aI61
aI4
aI2
aI5
aI31
aI815
aI194
aI186
aI21
aI78
aI474
aI171
aI1539
aI1024
aI128
aI52
aI7
aI28
aI71
aI112
aI1331
aI12974
aI266
aI10
aI85
aI67
aI580
aI13
aI4356
aI18
aI98
aI28
aI394
aI23
aI1039
aI2972
aI24
aI265
aI404
aI1243
aI4
aI480
aI1544
aI4
aI5706
aa(lp14
I631
aI42
aI8
aI16
aI39
aI45
aI40
aI6
aI4
aI239
aI45
aI1
aI46
aI22
aI543
aI5
aI2
aI56
aI57
aI89
aI1315
aI1332
aI204
aI402
aI177
aI12
aI17
aI2
aI125
aI34
aI242
aI559
aI1152
aI109
aI13
aI24
aI6536
aI45
aI10
aI16
aI259
aI1599
aI793
aI177
aI18
aI12
aI25
aI13
aI9
aI4359
aI3
aI3
aI940
aI5832
aI284
aI84
aI6
aI53
aI4
aI2070
aI6931
aI10
aI236
aI113
aI4
aI1
aI23
aI558
aI117
aI28
aI783
aI84
aI3
aI2
aI575
aI46
aI9
aI1
aI190
aI62
aI6
aI412
aI19
aI8
aI4
aI31
aI1
aI4
aI768
aI8
aI11
aI597
aI467
aI1
aI1
aI30
aI420
aI35
aI4
aI19
aa(lp15
I2
aI18
aI791
aI4
aI515
aI91
aI244
aI3199
aI1093
aI311
aI238
aI4
aI1
aI16
aI3
aI15572
aI55
aI4
aI10
aI23
aI3
aI43
aI16
aI3
aI1
aI466
aI8
aI5
aI17
aI21
aI250
aI233
aI191
aI26
aI21
aI10
aI1529
aI122
aI50
aI34
aI3
aI12
aI2
aI15
aI100
aI49
aI4
aI281
aI207
aI78
aI7
aI2
aI303
aI1247
aI74
aI466
aI132
aI70
aI2
aI1044
aI236
aI32
aI4
aI1800
aI6
aI5
aI6
aI82
aI3644
aI1460
aI492
aI6
aI35
aI18
aI2
aI51
aI77
aI29
aI137
aI239
aI766
aI7
aI27
aI1092
aI12
aI94
aI3
aI5
aI690
aI9
aI206
aI47
aI163
aI8
aI4
aI11
aI6
aI6
aI468
aI415
aa(lp16
I180
aI2
aI31
aI4093
aI442
aI40
aI3
aI3
aI3017
aI1715
aI5
aI1626
aI32
aI7
aI1854
aI178
aI45
aI86
aI949
aI2563
aI575
aI24
aI5
aI62
aI488
aI74
aI2
aI1512
aI32
aI1635
aI282
aI19
aI2063
aI6
aI379
aI160
aI16
aI82
aI647
aI310
aI131
aI102
aI28
aI7826
aI6
aI2259
aI6
aI510
aI546
aI7
aI21
aI4
aI348
aI15
aI2031
aI89
aI91
aI10
aI58
aI5
aI8
aI563
aI104
aI7
aI148
aI351
aI217
aI26
aI7
aI17
aI11
aI6
aI7
aI2
aI101
aI24
aI924
aI8
aI188
aI28
aI12
aI271
aI221
aI1881
aI7
aI128
aI487
aI3
aI19
aI32
aI764
aI30
aI1363
aI255
aI12
aI7
aI976
aI1256
aI158
aI3
aa(lp17
I5
aI145
aI398
aI75
aI11
aI55
aI11
aI31
aI6
aI11
aI10
aI192
aI13
aI79
aI24
aI735
aI174
aI38
aI232
aI38
aI9
aI222
aI359
aI77
aI1313
aI10
aI941
aI22
aI843
aI1134
aI2
aI113
aI47
aI1274
aI141
aI2
aI339
aI16
aI197
aI14
aI390
aI32
aI839
aI3
aI362
aI133
aI155
aI21
aI7
aI1476
aI974
aI3
aI4885
aI133
aI701
aI5
aI11
aI1242
aI15
aI2
aI33
aI61
aI48
aI6197
aI2
aI2445
aI5810
aI490
aI8
aI6371
aI12
aI22
aI25
aI4584
aI199
aI7
aI138
aI1614
aI17
aI3868
aI339
aI12
aI5
aI273
aI49
aI8
aI113
aI5
aI6
aI1874
aI79
aI36
aI163
aI23
aI357
aI6
aI548
aI121
aI416
aI6
aa(lp18
I786
aI1576
aI1086
aI237
aI546
aI5
aI308
aI59
aI430
aI657
aI893
aI147
aI4691
aI254
aI2455
aI76
aI18
aI129
aI12
aI4
aI208
aI2
aI460
aI39
aI2
aI16
aI3
aI18
aI107
aI1
aI2
aI117
aI103
aI6
aI975
aI13
aI5
aI5
aI24
aI5704
aI202
aI4
aI8
aI29
aI736
aI117
aI4
aI3
aI141
aI16
aI3
aI9
aI5
aI16
aI95
aI493
aI55
aI820
aI2
aI455
aI1119
aI3
aI461
aI53
aI68
aI3675
aI4
aI21
aI212
aI145
aI205
aI565
aI14
aI3
aI15
aI20
aI964
aI1121
aI888
aI29
aI10
aI45
aI4
aI6
aI26
aI5
aI4
aI5
aI1
aI358
aI2466
aI7
aI3992
aI1527
aI44
aI345
aI11
aI16
aI19
aI25
aa(lp19
I0
aI1178
aI6
aI1
aI2
aI572
aI106
aI664
aI19
aI773
aI290
aI28
aI849
aI5
aI1042
aI489
aI74
aI208
aI4
aI8
aI3
aI20
aI396
aI9
aI1
aI437
aI21
aI121
aI603
aI374
aI286
aI3
aI280
aI29
aI60
aI148
aI165
aI20
aI2
aI870
aI13
aI1603
aI691
aI55
aI2
aI5
aI34
aI1684
aI920
aI67
aI105
aI294
aI113
aI31
aI27
aI58
aI26
aI226
aI23
aI4
aI3
aI13
aI5
aI57
aI168
aI492
aI2886
aI464
aI18
aI873
aI21
aI7
aI88
aI133
aI123
aI45
aI10
aI23
aI42
aI320
aI160
aI306
aI680
aI0
aI178
aI111
aI1673
aI5
aI77
aI107
aI6
aI11
aI8
aI7
aI9
aI6
aI46
aI1205
aI1461
aI12
aa(lp20
I7
aI201
aI49
aI25
aI106
aI15
aI115
aI2659
aI28
aI88
aI46
aI69
aI16
aI8
aI7
aI1507
aI23
aI116
aI1
aI20
aI943
aI223
aI8
aI1029
aI816
aI428
aI4
aI4
aI231
aI7
aI200
aI12
aI7
aI18
aI51
aI17
aI52
aI119
aI608
aI4
aI4
aI128
aI230
aI341
aI44
aI34
aI270
aI35
aI39
aI260
aI323
aI56
aI6
aI137
aI32
aI5
aI315
aI4
aI11
aI13
aI4
aI1358
aI102
aI9
aI29
aI731
aI216
aI181
aI3027
aI5
aI15
aI40
aI14
aI20
aI17
aI9
aI9
aI154
aI1
aI6
aI86
aI2
aI12
aI8
aI5
aI25
aI389
aI3
aI2
aI19
aI696
aI10
aI1
aI3
aI158
aI17
aI94
aI12
aI744
aI534
aa(lp21
I120
aI1
aI75
aI1136
aI468
aI15
aI1742
aI123
aI5
aI263
aI1132
aI98
aI23
aI14
aI330
aI12
aI30
aI105
aI11
aI435
aI291
aI70
aI2717
aI433
aI33
aI51
aI160
aI578
aI4
aI8
aI3616
aI230
aI33
aI7
aI119
aI138
aI0
aI19
aI52
aI115
aI15
aI112
aI1758
aI303
aI44
aI63
aI10
aI258
aI109
aI529
aI437
aI965
aI42
aI3
aI67
aI38
aI4
aI3324
aI23
aI83
aI16
aI19
aI21
aI10
aI99
aI3
aI963
aI52
aI12
aI2449
aI287
aI256
aI3
aI2
aI16
aI4
aI7
aI37
aI562
aI2270
aI244
aI12
aI4673
aI57
aI107
aI135
aI109
aI12
aI41
aI9
aI5
aI33
aI27
aI116
aI236
aI2268
aI5
aI329
aI953
aI30
aa(lp22
I11
aI14
aI99
aI13
aI1
aI462
aI133
aI12
aI10
aI6
aI168
aI11
aI25
aI18
aI8
aI2
aI8
aI25
aI24
aI180
aI616
aI8
aI274
aI37
aI49
aI15
aI15
aI10
aI51
aI21
aI5
aI247
aI2
aI2314
aI1
aI3
aI7
aI5
aI159
aI695
aI20
aI136
aI96
aI185
aI68
aI4524
aI429
aI2
aI18
aI325
aI161
aI556
aI7
aI5
aI31
aI180
aI1051
aI897
aI52
aI13
aI184
aI21
aI10
aI8
aI51
aI694
aI2
aI1253
aI43
aI456
aI27
aI29
aI4
aI26
aI6
aI4
aI170
aI6
aI62
aI6
aI2207
aI13
aI186
aI40
aI21
aI19
aI37
aI55
aI8
aI534
aI16
aI5
aI37
aI15
aI40
aI1370
aI24
aI736
aI38
aI1189
aa(lp23
I15
aI15
aI179
aI9
aI331
aI2
aI16
aI2
aI347
aI693
aI46
aI6
aI4
aI438
aI75
aI359
aI91
aI6
aI6
aI104
aI59
aI6
aI53
aI0
aI733
aI28
aI45
aI335
aI355
aI2
aI556
aI5
aI2
aI127
aI37
aI1275
aI26
aI194
aI181
aI5
aI49
aI7
aI7
aI7
aI4
aI13
aI19
aI1090
aI34
aI491
aI7
aI4
aI1026
aI1990
aI11
aI6
aI252
aI4
aI152
aI6
aI4
aI5
aI230
aI20
aI716
aI14
aI9
aI34
aI20
aI15
aI25
aI1894
aI30
aI9
aI13
aI1610
aI189
aI74
aI29
aI15
aI194
aI36
aI239
aI221
aI309
aI6
aI642
aI67
aI71
aI96
aI109
aI12
aI4
aI164
aI2
aI2420
aI1046
aI5
aI814
aI27
aa(lp24
I9
aI21
aI937
aI284
aI52
aI156
aI519
aI28
aI152
aI11
aI12
aI19
aI8
aI245
aI5
aI2
aI60
aI587
aI5
aI625
aI10
aI9
aI73
aI83
aI139
aI7
aI12
aI5
aI5
aI347
aI47
aI7
aI476
aI3
aI8
aI17
aI1063
aI2
aI21
aI19
aI48
aI2595
aI3587
aI121
aI13
aI9
aI408
aI424
aI5
aI106
aI573
aI3
aI3
aI18
aI145
aI7
aI1
aI50
aI30
aI39
aI159
aI82
aI204
aI19
aI8
aI5
aI14
aI9
aI11
aI2
aI11
aI106
aI44
aI3
aI3
aI6
aI352
aI231
aI271
aI4
aI16
aI593
aI672
aI5
aI16
aI6
aI1
aI469
aI9
aI7
aI148
aI385
aI184
aI5
aI315
aI14
aI51
aI18
aI9
aI11
aasS'experiment'
p25
(dp26
S'trialsPerAgent'
p27
I100
sS'numAgents'
p28
(lp29
I10
aI20
aI30
aI40
aI50
aI60
aI70
aI80
aI90
aI100
aI110
aI120
aI130
aI140
aI150
aI160
aI170
aI180
aI190
aI200
asS'D'
p30
(lp31
I10
aI10
aI10
aI10
aI10
aI10
aI10
aI10
aI10
aI10
aI10
aI10
aI10
aI10
aI10
aI10
aI10
aI10
aI10
aI10
assS'type'
p32
S'LinesUniformInAll'
p33
s.