(dp0
S'argsDesc'
p1
S'K = 6'
p2
sS'data'
p3
(lp4
(lp5
I116585
aI54902
aI80827
aI10044
aI11527
aI67699
aI101100
aI37128
aI80478
aI24259
aI50638
aI68256
aI85152
aI75286
aI78713
aI117556
aI163145
aI27703
aI32832
aI5151
aI31695
aI66297
aI86688
aI3184
aI17477
aI71039
aI9197
aI27536
aI107428
aI14072
aI113347
aI25073
aI24985
aI8061
aI102839
aI3409
aI7986
aI83224
aI69627
aI13376
aI86649
aI16405
aI88307
aI66173
aI282
aI172033
aI27397
aI49381
aI32828
aI30950
aI15356
aI75889
aI108933
aI8004
aI71645
aI10506
aI25501
aI7683
aI118254
aI107439
aI38346
aI37196
aI43614
aI6001
aI8413
aI93645
aI75870
aI5347
aI100091
aI71618
aI29044
aI75778
aI17779
aI156222
aI10566
aI114360
aI27239
aI8963
aI23879
aI26668
aI103396
aI26233
aI3128
aI25945
aI33726
aI57177
aI70942
aI36633
aI82049
aI70523
aI120681
aI23562
aI89600
aI30715
aI26905
aI35875
aI90236
aI87131
aI33693
aI77701
aa(lp6
I97662
aI10502
aI2568
aI7800
aI54905
aI25327
aI71423
aI7767
aI56551
aI69310
aI24260
aI82162
aI13938
aI35560
aI13046
aI22346
aI45964
aI82701
aI26604
aI40006
aI32928
aI69565
aI31076
aI6477
aI71590
aI39265
aI121545
aI13230
aI23100
aI68033
aI68703
aI68457
aI28372
aI82832
aI49852
aI2903
aI55717
aI8301
aI31039
aI15394
aI93298
aI71809
aI59448
aI26818
aI9414
aI17866
aI17285
aI23753
aI9594
aI25067
aI22799
aI70927
aI41074
aI8132
aI113661
aI11904
aI52575
aI194165
aI50212
aI4154
aI77747
aI26649
aI25812
aI23738
aI1978
aI26941
aI137608
aI9197
aI10094
aI140844
aI32712
aI37532
aI3342
aI85064
aI26545
aI84913
aI70533
aI9555
aI7750
aI23047
aI8895
aI76206
aI4138
aI2327
aI119293
aI29736
aI131996
aI2432
aI10566
aI29219
aI18993
aI28997
aI25550
aI3047
aI39398
aI34803
aI108980
aI32450
aI45991
aI6165
aa(lp7
I24405
aI2724
aI11338
aI26124
aI9775
aI38756
aI26350
aI35443
aI15431
aI24564
aI15059
aI2566
aI3050
aI39910
aI73729
aI64470
aI8605
aI8687
aI41638
aI74631
aI1290
aI29860
aI12632
aI23259
aI7604
aI11921
aI38789
aI8022
aI8655
aI37476
aI35694
aI10544
aI7764
aI46991
aI10237
aI1138
aI1673
aI49397
aI814
aI9603
aI2605
aI40267
aI8821
aI80688
aI8401
aI1546
aI23119
aI73297
aI2749
aI68828
aI28756
aI15704
aI11193
aI2377
aI30155
aI78034
aI23417
aI107423
aI25410
aI8493
aI14421
aI24177
aI594
aI34470
aI23350
aI2061
aI18511
aI24529
aI127
aI5563
aI69514
aI54628
aI69630
aI28644
aI45182
aI1027
aI38293
aI56438
aI1526
aI24805
aI42044
aI53684
aI38364
aI8841
aI9962
aI9522
aI69548
aI23542
aI7805
aI27419
aI101257
aI16786
aI18744
aI2334
aI79397
aI57019
aI51330
aI5727
aI106950
aI682
aa(lp8
I18579
aI72280
aI16146
aI8342
aI51278
aI3732
aI46671
aI1144
aI67446
aI68527
aI75648
aI69781
aI32738
aI78404
aI4143
aI36919
aI8863
aI20185
aI24031
aI8365
aI40196
aI12421
aI35780
aI36094
aI27857
aI12291
aI8034
aI8507
aI25175
aI71056
aI68438
aI62979
aI67324
aI35821
aI51339
aI24987
aI106724
aI105063
aI72680
aI1490
aI26154
aI3311
aI68700
aI9657
aI69781
aI29119
aI30429
aI56562
aI16215
aI24668
aI73629
aI45710
aI11111
aI2303
aI867
aI31946
aI73093
aI17926
aI19059
aI7907
aI69126
aI7540
aI29069
aI7649
aI30055
aI8193
aI34048
aI46336
aI26360
aI7987
aI82835
aI43142
aI11469
aI10493
aI2
aI29190
aI75766
aI34833
aI40677
aI9962
aI91812
aI25611
aI34724
aI67957
aI5594
aI101
aI3358
aI69859
aI82175
aI87654
aI8906
aI56956
aI8167
aI92043
aI14814
aI66502
aI27624
aI69626
aI26179
aI74404
aa(lp9
I15658
aI10135
aI10100
aI17003
aI12108
aI1520
aI11478
aI85967
aI4690
aI70595
aI23495
aI28947
aI22919
aI23863
aI10425
aI29421
aI25411
aI35004
aI35607
aI9214
aI32766
aI23168
aI2791
aI26218
aI23882
aI24270
aI23188
aI67335
aI38172
aI21782
aI23185
aI847
aI40091
aI613
aI70300
aI18560
aI40627
aI8550
aI8129
aI10674
aI31417
aI9463
aI12850
aI78142
aI8169
aI3235
aI2391
aI30162
aI2813
aI1766
aI20985
aI42315
aI24851
aI47201
aI23972
aI32582
aI11138
aI32533
aI14301
aI23462
aI68263
aI67747
aI40708
aI3567
aI2402
aI8067
aI23002
aI5860
aI30668
aI24251
aI23989
aI28771
aI8798
aI51092
aI15040
aI3341
aI19467
aI32474
aI6516
aI38505
aI72838
aI24490
aI5
aI70368
aI54123
aI8447
aI68678
aI49117
aI29821
aI29454
aI4534
aI9035
aI14166
aI26837
aI33639
aI564
aI28082
aI13330
aI15036
aI70042
aa(lp10
I80917
aI24329
aI17932
aI10226
aI11893
aI25314
aI19513
aI44415
aI7578
aI27220
aI4236
aI67420
aI19079
aI41168
aI67184
aI35585
aI29061
aI24704
aI7973
aI75241
aI18443
aI8084
aI26706
aI39924
aI7898
aI13617
aI3358
aI15402
aI25872
aI76430
aI9367
aI66225
aI572
aI4792
aI35217
aI49237
aI28066
aI9885
aI25944
aI29832
aI12122
aI12306
aI71816
aI2840
aI8853
aI8474
aI34195
aI24193
aI29677
aI18078
aI24793
aI557
aI26080
aI25524
aI2346
aI53263
aI31187
aI67530
aI16303
aI88570
aI16909
aI73023
aI83832
aI30310
aI4625
aI30339
aI6229
aI73675
aI25427
aI2908
aI26541
aI17498
aI72896
aI6087
aI29857
aI3974
aI66666
aI30365
aI31176
aI8415
aI9391
aI18
aI735
aI630
aI3004
aI8135
aI9337
aI35209
aI24718
aI8798
aI754
aI24183
aI72884
aI9607
aI2579
aI27295
aI24571
aI5114
aI27978
aI601
aa(lp11
I24425
aI41399
aI14148
aI46564
aI549
aI7571
aI24715
aI18291
aI23422
aI6389
aI596
aI19019
aI13018
aI64054
aI48484
aI30875
aI2392
aI7873
aI23827
aI76107
aI8292
aI12326
aI45666
aI31056
aI12335
aI10754
aI46020
aI4232
aI52189
aI28611
aI28557
aI24081
aI2529
aI9495
aI27336
aI24248
aI70618
aI83
aI68466
aI2207
aI23119
aI12059
aI11280
aI10544
aI16963
aI74110
aI2353
aI572
aI72138
aI68442
aI8724
aI7758
aI23543
aI9329
aI69301
aI67255
aI31542
aI8104
aI83703
aI24676
aI70582
aI69541
aI9111
aI24214
aI40724
aI43380
aI3549
aI3491
aI10533
aI7767
aI19189
aI2685
aI27900
aI25098
aI7807
aI11873
aI45369
aI86824
aI27863
aI2391
aI8485
aI32943
aI23629
aI12716
aI570
aI26562
aI77628
aI11874
aI18467
aI9456
aI72802
aI31818
aI22988
aI31592
aI26344
aI4143
aI9286
aI8063
aI24485
aI37210
aa(lp12
I23875
aI11912
aI48104
aI45585
aI19346
aI9596
aI68551
aI53858
aI28988
aI54019
aI1451
aI32151
aI28723
aI25662
aI34186
aI37792
aI27266
aI4149
aI24763
aI26742
aI24719
aI34135
aI26327
aI36309
aI3002
aI2466
aI7783
aI8797
aI11290
aI9863
aI82988
aI68662
aI13003
aI26204
aI8085
aI8883
aI56417
aI2409
aI25639
aI24504
aI78761
aI25868
aI74828
aI5077
aI69444
aI5058
aI2920
aI27158
aI41867
aI39173
aI42834
aI2634
aI23474
aI2618
aI24876
aI8060
aI8
aI2593
aI2483
aI30344
aI1198
aI28205
aI29602
aI949
aI26229
aI8495
aI39831
aI23306
aI7991
aI16232
aI40861
aI30482
aI26821
aI721
aI16997
aI69391
aI24269
aI1525
aI25359
aI23841
aI10753
aI23309
aI9966
aI25297
aI8162
aI9919
aI49911
aI23976
aI41818
aI69046
aI11823
aI24573
aI5800
aI41689
aI15765
aI41109
aI29808
aI10809
aI23609
aI744
aa(lp13
I5241
aI24088
aI28998
aI28508
aI28004
aI27964
aI3376
aI70127
aI28672
aI14824
aI43401
aI11383
aI41695
aI8272
aI68366
aI612
aI8377
aI58043
aI23858
aI23324
aI77448
aI2579
aI10142
aI45604
aI68973
aI6409
aI27160
aI7645
aI31239
aI3999
aI2521
aI11146
aI55177
aI10931
aI34075
aI67288
aI13582
aI3041
aI31516
aI16373
aI24306
aI3104
aI73812
aI28978
aI46242
aI572
aI24633
aI12306
aI26105
aI23521
aI12672
aI31833
aI27606
aI47063
aI12782
aI8448
aI11774
aI11906
aI674
aI13020
aI4104
aI76675
aI2689
aI23089
aI18729
aI49020
aI25096
aI25181
aI10102
aI29720
aI22993
aI23394
aI9235
aI25227
aI23990
aI2314
aI27805
aI3768
aI68138
aI8865
aI8780
aI31196
aI68016
aI7774
aI24267
aI784
aI78658
aI12232
aI2331
aI31180
aI12083
aI45671
aI2756
aI24035
aI72664
aI77698
aI327
aI684
aI7825
aI28243
aa(lp14
I24249
aI3839
aI17861
aI11427
aI68073
aI28187
aI175
aI24527
aI8052
aI11256
aI2446
aI8322
aI9427
aI8503
aI43932
aI15267
aI23099
aI2388
aI66892
aI8887
aI69891
aI28569
aI28311
aI22
aI8464
aI25628
aI2482
aI9491
aI31137
aI51496
aI2550
aI30100
aI39251
aI24304
aI72643
aI26491
aI74597
aI8495
aI28008
aI32106
aI7995
aI83496
aI9831
aI22701
aI29696
aI37319
aI7759
aI74724
aI35433
aI52080
aI3186
aI11957
aI31812
aI2305
aI826
aI42583
aI75432
aI11642
aI651
aI18591
aI2392
aI25264
aI12252
aI9170
aI32239
aI35457
aI8227
aI26070
aI7862
aI9025
aI71208
aI36108
aI24191
aI913
aI29156
aI15629
aI44079
aI50840
aI49762
aI56947
aI69993
aI13471
aI16163
aI24533
aI2260
aI636
aI7753
aI48445
aI5592
aI33203
aI25148
aI23545
aI5151
aI70122
aI9277
aI9038
aI23338
aI10498
aI23349
aI5825
aa(lp15
I28542
aI4900
aI44311
aI4872
aI13312
aI22888
aI8044
aI75837
aI17158
aI10111
aI14308
aI68842
aI71883
aI10529
aI25063
aI23540
aI32357
aI275
aI12
aI24752
aI32278
aI7885
aI9406
aI7934
aI2984
aI8544
aI8131
aI2399
aI23302
aI7629
aI24128
aI28285
aI12654
aI8902
aI11823
aI23518
aI794
aI29440
aI55654
aI13815
aI25288
aI7533
aI14387
aI23784
aI66549
aI23221
aI11651
aI24133
aI3608
aI24049
aI41131
aI10151
aI23105
aI43
aI33577
aI8655
aI1207
aI23175
aI5309
aI15384
aI9340
aI67193
aI321
aI37631
aI9220
aI68535
aI8643
aI33850
aI9932
aI22871
aI8120
aI47236
aI23963
aI46659
aI14617
aI8471
aI13110
aI1217
aI2389
aI38150
aI3596
aI25740
aI7882
aI71957
aI12
aI600
aI32845
aI68656
aI3339
aI13384
aI8030
aI19248
aI36110
aI8497
aI13015
aI27771
aI7865
aI121
aI40686
aI4676
aa(lp16
I33126
aI57431
aI23473
aI26132
aI23049
aI8608
aI1518
aI637
aI2685
aI2316
aI26333
aI3366
aI1902
aI24170
aI7967
aI76179
aI9933
aI8733
aI45331
aI37444
aI67369
aI23487
aI24006
aI2328
aI23293
aI3311
aI25690
aI38416
aI7982
aI2375
aI9960
aI23599
aI8236
aI575
aI24264
aI7750
aI8680
aI3339
aI3069
aI2345
aI2512
aI24557
aI8405
aI32512
aI27215
aI30342
aI594
aI8711
aI30590
aI3283
aI11216
aI9892
aI14788
aI25360
aI66681
aI583
aI8215
aI9191
aI2633
aI28916
aI22842
aI4253
aI16157
aI29608
aI25698
aI23696
aI25555
aI24537
aI69539
aI43577
aI3144
aI25222
aI7752
aI13867
aI22968
aI23243
aI8608
aI37785
aI29212
aI36582
aI11867
aI8456
aI51216
aI35186
aI75
aI80448
aI17331
aI25419
aI30260
aI17592
aI2873
aI7968
aI5570
aI12064
aI7867
aI27885
aI29532
aI8271
aI32863
aI27346
aa(lp17
I8771
aI8640
aI27505
aI31999
aI16048
aI2397
aI25047
aI38300
aI3084
aI2911
aI13661
aI1985
aI24942
aI14965
aI9148
aI10013
aI19863
aI67533
aI25595
aI26232
aI68928
aI3127
aI10850
aI8178
aI23133
aI18513
aI31282
aI23431
aI67307
aI3087
aI28203
aI69230
aI12340
aI11621
aI25786
aI3
aI2433
aI67984
aI3149
aI50288
aI17954
aI7842
aI2269
aI24044
aI67410
aI2356
aI10226
aI16037
aI25091
aI24675
aI24021
aI8087
aI92733
aI544
aI30488
aI42591
aI4254
aI24466
aI8141
aI23946
aI29635
aI69019
aI7901
aI68706
aI28551
aI8128
aI8037
aI67524
aI590
aI16061
aI52647
aI8584
aI8147
aI3959
aI38811
aI10267
aI30906
aI23867
aI26218
aI9150
aI15257
aI8077
aI29689
aI69328
aI17440
aI46187
aI1822
aI3140
aI23518
aI8982
aI23045
aI24247
aI10446
aI72712
aI2570
aI2331
aI1084
aI41689
aI26395
aI72634
aa(lp18
I55498
aI68360
aI39010
aI37158
aI24982
aI70404
aI58270
aI10201
aI24283
aI7686
aI7698
aI67916
aI34098
aI49886
aI8070
aI14457
aI51514
aI43612
aI24088
aI12934
aI12705
aI709
aI3398
aI23006
aI3288
aI550
aI71876
aI1757
aI23907
aI29386
aI23366
aI25485
aI18629
aI1370
aI25879
aI775
aI16064
aI26011
aI23304
aI31602
aI24042
aI23742
aI40992
aI3635
aI556
aI8855
aI13813
aI8044
aI65416
aI6671
aI25534
aI66253
aI15927
aI7794
aI24880
aI40497
aI11061
aI33681
aI2869
aI15481
aI23388
aI23430
aI23095
aI36619
aI30167
aI25188
aI38778
aI22936
aI26627
aI10031
aI31864
aI34481
aI7634
aI8709
aI620
aI2949
aI17328
aI72804
aI30515
aI38850
aI26761
aI5815
aI1304
aI31231
aI14922
aI9495
aI80119
aI23213
aI36213
aI2963
aI7902
aI1010
aI12793
aI4650
aI9592
aI8219
aI68868
aI7918
aI27131
aI31431
aa(lp19
I26587
aI8050
aI26986
aI70887
aI2451
aI9149
aI2523
aI67107
aI7847
aI7537
aI13134
aI28668
aI24757
aI48716
aI2659
aI68100
aI8519
aI23115
aI10723
aI23603
aI3143
aI15903
aI39397
aI7968
aI2597
aI68844
aI29882
aI23943
aI41570
aI25203
aI1245
aI27772
aI9104
aI11177
aI8020
aI3745
aI14155
aI14212
aI2790
aI26058
aI10988
aI19519
aI25003
aI160
aI9040
aI8877
aI41720
aI28037
aI24828
aI23152
aI28969
aI24104
aI47433
aI8885
aI29859
aI4860
aI68380
aI37328
aI18481
aI24096
aI12326
aI2861
aI23549
aI7714
aI685
aI28893
aI4431
aI68375
aI7933
aI18933
aI11052
aI25131
aI7695
aI2670
aI72936
aI3310
aI36990
aI9879
aI38988
aI29461
aI8125
aI8321
aI24558
aI34075
aI7921
aI10090
aI67657
aI712
aI38590
aI8647
aI12706
aI28473
aI8940
aI2329
aI2280
aI4073
aI10660
aI29677
aI38893
aI25750
aa(lp20
I23932
aI4177
aI3237
aI26071
aI36762
aI28526
aI38706
aI9091
aI34707
aI12383
aI23115
aI57292
aI5731
aI9217
aI23583
aI30532
aI68114
aI45651
aI67748
aI30597
aI9497
aI9852
aI10020
aI27097
aI12803
aI17451
aI47830
aI23889
aI26854
aI41203
aI24013
aI23982
aI23236
aI8526
aI26625
aI2502
aI16694
aI2929
aI10735
aI5432
aI2431
aI26591
aI717
aI9058
aI3141
aI23337
aI26827
aI1889
aI28630
aI3493
aI12379
aI25186
aI24788
aI11034
aI12089
aI26038
aI23834
aI26453
aI545
aI10017
aI8840
aI21079
aI8004
aI11165
aI29199
aI6372
aI23170
aI2356
aI12101
aI14260
aI25152
aI24709
aI30762
aI23355
aI2452
aI3923
aI70396
aI4968
aI725
aI565
aI27733
aI8146
aI23106
aI31493
aI24714
aI8030
aI4502
aI625
aI10942
aI31846
aI24429
aI535
aI2512
aI18496
aI12735
aI30993
aI30228
aI10558
aI2439
aI3313
aa(lp21
I11031
aI31280
aI4415
aI2517
aI44975
aI9372
aI28209
aI6548
aI21871
aI16611
aI24740
aI69280
aI2662
aI15270
aI24412
aI23731
aI12986
aI24722
aI4687
aI8297
aI29232
aI2336
aI14455
aI2578
aI12734
aI8548
aI76132
aI8159
aI7664
aI67430
aI71857
aI41645
aI5007
aI7913
aI67564
aI68214
aI9324
aI7485
aI7635
aI8042
aI25498
aI25661
aI11735
aI7795
aI36349
aI3116
aI34820
aI24524
aI10194
aI2361
aI35081
aI3621
aI72457
aI8463
aI69573
aI55362
aI16263
aI55673
aI23363
aI12322
aI19387
aI33557
aI11147
aI28137
aI49439
aI831
aI7820
aI3
aI4249
aI43571
aI1075
aI23775
aI8852
aI16244
aI54072
aI23481
aI24192
aI29173
aI2608
aI2938
aI12089
aI31746
aI24727
aI3736
aI23221
aI23451
aI30650
aI8856
aI26723
aI23902
aI45272
aI593
aI8123
aI32515
aI28469
aI23607
aI4605
aI23456
aI24528
aI70271
aa(lp22
I3332
aI23171
aI34132
aI25
aI9335
aI24922
aI8544
aI27968
aI3890
aI1044
aI23114
aI37935
aI43944
aI3023
aI2357
aI25128
aI352
aI12580
aI26382
aI7759
aI7609
aI12869
aI43048
aI8154
aI29120
aI14806
aI559
aI2419
aI12344
aI2450
aI10515
aI23476
aI8483
aI7669
aI33545
aI9484
aI25553
aI23907
aI549
aI2724
aI32687
aI23143
aI69411
aI2194
aI27751
aI24229
aI836
aI28144
aI29316
aI53633
aI14230
aI578
aI28028
aI8277
aI42771
aI23716
aI24673
aI23479
aI2301
aI25227
aI72144
aI15687
aI24720
aI32568
aI12207
aI71579
aI12091
aI3055
aI14053
aI31918
aI15283
aI18676
aI28974
aI8533
aI25508
aI11924
aI170
aI2127
aI18054
aI26346
aI2507
aI25807
aI74046
aI25484
aI29858
aI24386
aI22776
aI57645
aI13798
aI45630
aI24562
aI8456
aI7688
aI638
aI27745
aI9215
aI68554
aI25369
aI3309
aI8486
aa(lp23
I24960
aI750
aI29999
aI12410
aI23753
aI31965
aI23495
aI9440
aI28116
aI24583
aI2
aI2622
aI4199
aI29135
aI8337
aI29626
aI8405
aI17097
aI2879
aI23020
aI38005
aI11380
aI9811
aI40161
aI2451
aI8272
aI69479
aI4133
aI4271
aI10118
aI8478
aI9117
aI69101
aI226
aI14819
aI34915
aI24215
aI14843
aI11629
aI25001
aI28844
aI7851
aI613
aI9
aI7686
aI22914
aI3206
aI4256
aI23826
aI23744
aI24149
aI20
aI725
aI9969
aI2802
aI2827
aI30873
aI7729
aI39656
aI7959
aI13423
aI12191
aI29563
aI30575
aI27324
aI32561
aI9335
aI3323
aI882
aI2360
aI4409
aI8989
aI7826
aI40167
aI25127
aI8284
aI2669
aI70412
aI828
aI7615
aI69491
aI26375
aI29335
aI33021
aI25474
aI2742
aI28675
aI1505
aI8639
aI18725
aI7816
aI7730
aI23149
aI26553
aI26237
aI8793
aI70082
aI32659
aI1468
aI11780
aa(lp24
I2841
aI23201
aI9895
aI18641
aI8065
aI15752
aI14296
aI24871
aI68311
aI37759
aI9706
aI19303
aI8140
aI25686
aI44148
aI14212
aI2740
aI27581
aI8588
aI7724
aI14106
aI8386
aI27926
aI89
aI23262
aI34293
aI32714
aI21743
aI38
aI9282
aI8067
aI1783
aI24490
aI19314
aI4659
aI8405
aI5463
aI11331
aI6714
aI13082
aI37749
aI24816
aI25823
aI25553
aI23291
aI11105
aI19419
aI24320
aI26173
aI25630
aI79
aI9382
aI8086
aI38579
aI22189
aI3078
aI9640
aI2672
aI23023
aI2385
aI7496
aI7605
aI16230
aI23786
aI10140
aI45758
aI75749
aI7839
aI28179
aI2
aI27697
aI40831
aI8746
aI663
aI11087
aI71939
aI608
aI16813
aI33726
aI28070
aI26728
aI35014
aI23416
aI7823
aI3552
aI13155
aI3007
aI9832
aI2516
aI11133
aI8573
aI15313
aI23241
aI11437
aI7801
aI8112
aI41423
aI3740
aI233
aI23804
aasS'experiment'
p25
(dp26
S'trialsPerAgent'
p27
I100
sS'numAgents'
p28
(lp29
I10
aI20
aI30
aI40
aI50
aI60
aI70
aI80
aI90
aI100
aI110
aI120
aI130
aI140
aI150
aI160
aI170
aI180
aI190
aI200
asS'D'
p30
(lp31
I40
aI40
aI40
aI40
aI40
aI40
aI40
aI40
aI40
aI40
aI40
aI40
aI40
aI40
aI40
aI40
aI40
aI40
aI40
aI40
assS'type'
p32
S'LinesUniformInAll'
p33
s.