(dp0
S'argsDesc'
p1
S'D'
p2
sS'data'
p3
(lp4
(lp5
I13
aI60
aI3
aI18
aI3
aI7
aI9
aI25
aI12
aI7
aI11
aI9
aI13
aI5
aI11
aI7
aI8
aI10
aI8
aI22
aI68
aI6
aI13
aI9
aI10
aI9
aI13
aI3
aI6
aI8
aI6
aI46
aI30
aI8
aI11
aI11
aI11
aI5
aI11
aI13
aI6
aI7
aI11
aI5
aI8
aI1
aI48
aI10
aI10
aI11
aI7
aI13
aI6
aI6
aI7
aI12
aI2
aI2
aI14
aI8
aI12
aI4
aI29
aI10
aI12
aI8
aI5
aI29
aI5
aI11
aI12
aI25
aI11
aI10
aI13
aI13
aI12
aI17
aI8
aI7
aI6
aI9
aI7
aI11
aI11
aI9
aI10
aI5
aI27
aI6
aI9
aI3
aI3
aI11
aI6
aI28
aI51
aI6
aI8
aI4
aa(lp6
I11
aI12
aI16
aI7
aI9
aI65
aI20
aI17
aI14
aI15
aI30
aI15
aI42
aI10
aI11
aI8
aI68
aI4
aI14
aI8
aI14
aI14
aI11
aI46
aI7
aI12
aI20
aI17
aI5
aI17
aI12
aI10
aI9
aI9
aI39
aI12
aI57
aI7
aI11
aI26
aI8
aI14
aI17
aI27
aI7
aI7
aI6
aI5
aI238
aI52
aI43
aI6
aI19
aI15
aI9
aI15
aI16
aI4
aI12
aI16
aI49
aI19
aI64
aI13
aI34
aI8
aI8
aI14
aI9
aI17
aI18
aI15
aI5
aI15
aI10
aI14
aI8
aI64
aI7
aI9
aI18
aI7
aI46
aI18
aI20
aI32
aI12
aI27
aI25
aI20
aI44
aI61
aI17
aI92
aI15
aI15
aI67
aI65
aI18
aI14
aa(lp7
I61
aI27
aI23
aI11
aI6
aI18
aI14
aI22
aI9
aI8
aI15
aI27
aI26
aI6
aI31
aI111
aI54
aI11
aI5
aI17
aI182
aI10
aI21
aI16
aI10
aI24
aI20
aI24
aI10
aI21
aI10
aI15
aI23
aI55
aI20
aI11
aI22
aI14
aI26
aI117
aI19
aI51
aI63
aI2
aI11
aI5
aI5
aI18
aI14
aI14
aI16
aI55
aI140
aI21
aI22
aI18
aI19
aI18
aI16
aI46
aI14
aI18
aI46
aI80
aI22
aI41
aI103
aI13
aI14
aI109
aI4
aI63
aI22
aI22
aI16
aI73
aI18
aI33
aI22
aI96
aI19
aI9
aI23
aI13
aI9
aI14
aI14
aI20
aI21
aI28
aI185
aI11
aI25
aI171
aI20
aI16
aI19
aI7
aI9
aI35
aa(lp8
I20
aI22
aI7
aI26
aI53
aI9
aI17
aI38
aI18
aI20
aI153
aI24
aI13
aI106
aI245
aI83
aI18
aI29
aI5
aI66
aI237
aI22
aI155
aI9
aI34
aI23
aI28
aI6
aI26
aI232
aI19
aI23
aI24
aI59
aI59
aI65
aI128
aI13
aI74
aI33
aI161
aI28
aI23
aI23
aI32
aI43
aI74
aI20
aI47
aI14
aI246
aI55
aI23
aI272
aI4
aI24
aI29
aI23
aI18
aI20
aI11
aI45
aI22
aI114
aI25
aI20
aI62
aI8
aI7
aI9
aI423
aI42
aI17
aI18
aI9
aI29
aI128
aI188
aI28
aI125
aI81
aI22
aI6
aI13
aI32
aI17
aI31
aI95
aI16
aI9
aI44
aI85
aI36
aI6
aI27
aI43
aI26
aI25
aI15
aI27
aa(lp9
I38
aI13
aI11
aI94
aI30
aI16
aI58
aI245
aI32
aI18
aI154
aI16
aI164
aI67
aI145
aI23
aI25
aI29
aI74
aI160
aI29
aI27
aI94
aI20
aI129
aI41
aI34
aI59
aI41
aI26
aI248
aI246
aI141
aI26
aI85
aI65
aI20
aI48
aI224
aI30
aI14
aI47
aI23
aI90
aI74
aI38
aI150
aI18
aI155
aI39
aI9
aI36
aI33
aI10
aI13
aI28
aI107
aI30
aI160
aI21
aI18
aI19
aI85
aI25
aI15
aI19
aI6
aI28
aI28
aI38
aI32
aI113
aI63
aI27
aI27
aI99
aI71
aI34
aI24
aI29
aI9
aI21
aI156
aI332
aI32
aI36
aI27
aI21
aI94
aI24
aI107
aI203
aI37
aI8
aI33
aI85
aI221
aI71
aI3
aI11
aa(lp10
I364
aI116
aI35
aI32
aI11
aI717
aI28
aI101
aI332
aI31
aI24
aI69
aI143
aI201
aI67
aI45
aI48
aI2
aI27
aI387
aI106
aI32
aI191
aI10
aI69
aI192
aI91
aI39
aI27
aI12
aI34
aI34
aI71
aI28
aI84
aI157
aI42
aI507
aI33
aI1315
aI126
aI314
aI18
aI219
aI66
aI29
aI22
aI44
aI53
aI34
aI39
aI86
aI111
aI210
aI81
aI130
aI38
aI52
aI68
aI45
aI111
aI136
aI43
aI6
aI16
aI19
aI5
aI300
aI66
aI125
aI42
aI22
aI23
aI56
aI92
aI20
aI75
aI8
aI168
aI128
aI142
aI33
aI169
aI46
aI98
aI201
aI26
aI27
aI923
aI13
aI28
aI5
aI10
aI96
aI203
aI23
aI114
aI43
aI20
aI161
aa(lp11
I11
aI864
aI44
aI17
aI405
aI143
aI51
aI49
aI50
aI153
aI36
aI37
aI25
aI175
aI39
aI139
aI41
aI301
aI441
aI40
aI294
aI228
aI319
aI132
aI52
aI174
aI66
aI41
aI103
aI54
aI351
aI43
aI396
aI31
aI48
aI114
aI41
aI39
aI87
aI18
aI42
aI33
aI2
aI159
aI134
aI17
aI278
aI292
aI50
aI58
aI10
aI125
aI5
aI137
aI91
aI35
aI222
aI186
aI198
aI173
aI285
aI168
aI255
aI54
aI152
aI18
aI48
aI73
aI20
aI349
aI92
aI134
aI256
aI69
aI77
aI41
aI292
aI33
aI45
aI185
aI216
aI162
aI174
aI215
aI19
aI30
aI361
aI38
aI145
aI14
aI108
aI240
aI312
aI26
aI87
aI21
aI42
aI32
aI36
aI273
aa(lp12
I46
aI89
aI112
aI93
aI192
aI26
aI110
aI52
aI852
aI391
aI46
aI92
aI15
aI37
aI354
aI31
aI33
aI31
aI132
aI345
aI90
aI193
aI598
aI211
aI18
aI423
aI46
aI143
aI49
aI229
aI116
aI106
aI5
aI48
aI269
aI124
aI129
aI181
aI126
aI302
aI52
aI605
aI1509
aI41
aI16
aI235
aI51
aI205
aI43
aI53
aI112
aI32
aI2
aI354
aI45
aI220
aI32
aI463
aI30
aI369
aI34
aI458
aI22
aI152
aI52
aI29
aI129
aI354
aI196
aI12
aI320
aI41
aI50
aI204
aI47
aI261
aI772
aI11
aI405
aI147
aI43
aI217
aI216
aI21
aI32
aI26
aI82
aI363
aI353
aI32
aI27
aI844
aI33
aI34
aI39
aI127
aI89
aI48
aI1949
aI46
aa(lp13
I268
aI118
aI389
aI164
aI56
aI93
aI110
aI123
aI43
aI14
aI24
aI488
aI372
aI47
aI46
aI550
aI726
aI850
aI55
aI459
aI28
aI820
aI109
aI270
aI54
aI165
aI227
aI376
aI14
aI96
aI139
aI56
aI226
aI18
aI108
aI52
aI270
aI261
aI60
aI267
aI65
aI249
aI18
aI158
aI26
aI45
aI244
aI153
aI289
aI25
aI170
aI181
aI374
aI44
aI130
aI41
aI144
aI277
aI68
aI237
aI36
aI58
aI266
aI401
aI111
aI250
aI400
aI107
aI26
aI53
aI335
aI57
aI274
aI47
aI50
aI308
aI55
aI286
aI300
aI360
aI394
aI147
aI93
aI50
aI114
aI379
aI166
aI41
aI459
aI935
aI30
aI48
aI166
aI13
aI106
aI643
aI48
aI185
aI107
aI371
aa(lp14
I60
aI341
aI53
aI12
aI41
aI381
aI158
aI207
aI435
aI56
aI302
aI83
aI34
aI221
aI142
aI285
aI793
aI155
aI97
aI173
aI1307
aI30
aI253
aI67
aI35
aI484
aI270
aI61
aI580
aI40
aI1230
aI419
aI225
aI376
aI215
aI50
aI586
aI566
aI243
aI369
aI47
aI833
aI211
aI47
aI58
aI210
aI372
aI21
aI476
aI34
aI54
aI422
aI363
aI484
aI1962
aI700
aI653
aI44
aI354
aI143
aI590
aI126
aI847
aI568
aI131
aI110
aI51
aI222
aI147
aI87
aI409
aI44
aI935
aI143
aI310
aI59
aI105
aI145
aI226
aI491
aI31
aI26
aI79
aI43
aI645
aI11
aI151
aI70
aI118
aI596
aI190
aI388
aI1370
aI417
aI66
aI45
aI839
aI134
aI95
aI39
aasS'experiment'
p15
(dp16
S'trialsPerAgent'
p17
I100
sS'numAgents'
p18
(lp19
I200
aI200
aI200
aI200
aI200
aI200
aI200
aI200
aI200
aI200
asg2
(lp20
I10
aI15
aI20
aI25
aI30
aI35
aI40
aI45
aI50
aI55
assS'type'
p21
S'LinesNonUniform'
p22
s.