(dp0
S'argsDesc'
p1
S'K = 6'
p2
sS'data'
p3
(lp4
(lp5
I2
aI72
aI289
aI86
aI11
aI0
aI9
aI125
aI271
aI102
aI29
aI109
aI22
aI37
aI7
aI3
aI19
aI31
aI263
aI11
aI106
aI261
aI5
aI120
aI18
aI19
aI1
aI283
aI123
aI273
aI43
aI95
aI30
aI277
aI81
aI15
aI9
aI36
aI21
aI41
aI11
aI15
aI195
aI6
aI121
aI284
aI24
aI255
aI3
aI184
aI1
aI12
aI1
aI37
aI119
aI11
aI119
aI27
aI86
aI4
aI16
aI40
aI59
aI277
aI13
aI8
aI32
aI171
aI125
aI209
aI3
aI277
aI289
aI258
aI3
aI25
aI305
aI279
aI16
aI280
aI238
aI127
aI21
aI17
aI306
aI3
aI15
aI331
aI3
aI66
aI33
aI8
aI2
aI35
aI4
aI47
aI96
aI259
aI8
aI39
aa(lp6
I6
aI67
aI346
aI318
aI293
aI245
aI51
aI132
aI355
aI6
aI185
aI280
aI39
aI23
aI287
aI256
aI279
aI161
aI324
aI399
aI5
aI308
aI257
aI781
aI244
aI114
aI18
aI254
aI293
aI295
aI32
aI432
aI463
aI257
aI4
aI171
aI332
aI259
aI365
aI62
aI287
aI359
aI282
aI376
aI244
aI162
aI261
aI714
aI4
aI291
aI30
aI249
aI206
aI311
aI257
aI311
aI63
aI162
aI393
aI821
aI2
aI299
aI391
aI28
aI70
aI263
aI305
aI287
aI386
aI5
aI278
aI280
aI103
aI65
aI93
aI28
aI2
aI371
aI377
aI205
aI277
aI313
aI3
aI13
aI4
aI13
aI355
aI54
aI3
aI418
aI13
aI282
aI285
aI350
aI279
aI97
aI3
aI267
aI278
aI5
aa(lp7
I168
aI282
aI75
aI301
aI260
aI467
aI883
aI347
aI364
aI288
aI952
aI266
aI13
aI743
aI4
aI835
aI282
aI328
aI4
aI307
aI787
aI263
aI849
aI836
aI467
aI34
aI566
aI365
aI23
aI5
aI244
aI382
aI257
aI2
aI260
aI265
aI5
aI431
aI771
aI382
aI306
aI297
aI801
aI440
aI299
aI271
aI791
aI305
aI280
aI28
aI11
aI569
aI314
aI62
aI683
aI512
aI651
aI790
aI752
aI339
aI599
aI549
aI564
aI418
aI116
aI457
aI260
aI363
aI374
aI366
aI318
aI403
aI43
aI36
aI270
aI348
aI263
aI168
aI275
aI789
aI258
aI328
aI444
aI270
aI283
aI24
aI329
aI336
aI456
aI614
aI410
aI718
aI162
aI21
aI511
aI2
aI109
aI254
aI302
aI365
aa(lp8
I28
aI525
aI13
aI824
aI444
aI246
aI440
aI643
aI483
aI354
aI690
aI282
aI959
aI1043
aI549
aI864
aI352
aI898
aI363
aI1207
aI546
aI978
aI381
aI959
aI253
aI994
aI1333
aI11
aI803
aI327
aI843
aI966
aI303
aI1094
aI844
aI264
aI495
aI780
aI888
aI795
aI68
aI487
aI38
aI63
aI1090
aI338
aI610
aI253
aI1042
aI341
aI1240
aI1065
aI1682
aI1110
aI413
aI519
aI147
aI1023
aI266
aI705
aI391
aI1
aI428
aI289
aI390
aI295
aI354
aI321
aI825
aI131
aI865
aI264
aI279
aI2
aI815
aI817
aI862
aI243
aI766
aI268
aI383
aI4
aI515
aI875
aI762
aI247
aI938
aI354
aI574
aI417
aI985
aI1559
aI857
aI426
aI312
aI327
aI10
aI870
aI276
aI24
aa(lp9
I879
aI994
aI1063
aI348
aI363
aI1516
aI302
aI879
aI554
aI353
aI662
aI1349
aI1632
aI857
aI778
aI1594
aI8
aI860
aI1044
aI3
aI440
aI664
aI888
aI890
aI520
aI1035
aI1902
aI858
aI1073
aI925
aI1810
aI1398
aI79
aI32
aI942
aI296
aI1630
aI287
aI833
aI916
aI1010
aI813
aI321
aI1423
aI847
aI327
aI516
aI856
aI877
aI851
aI517
aI849
aI1092
aI651
aI912
aI333
aI37
aI808
aI800
aI1409
aI376
aI515
aI308
aI1005
aI234
aI934
aI1247
aI1574
aI713
aI750
aI706
aI12
aI700
aI254
aI781
aI925
aI1181
aI308
aI1032
aI1820
aI877
aI19
aI272
aI1658
aI688
aI342
aI673
aI594
aI1181
aI809
aI326
aI1166
aI466
aI805
aI825
aI1149
aI909
aI288
aI861
aI504
aa(lp10
I2302
aI802
aI959
aI1778
aI1598
aI1052
aI1717
aI904
aI2063
aI589
aI954
aI1689
aI371
aI476
aI847
aI629
aI1004
aI2015
aI281
aI5
aI869
aI116
aI312
aI1145
aI960
aI7
aI502
aI341
aI301
aI893
aI903
aI980
aI2086
aI950
aI426
aI70
aI457
aI264
aI972
aI749
aI909
aI770
aI28
aI1517
aI4
aI1201
aI890
aI636
aI3
aI710
aI847
aI327
aI345
aI1185
aI1980
aI391
aI1122
aI754
aI453
aI948
aI1560
aI822
aI987
aI612
aI782
aI361
aI264
aI685
aI255
aI764
aI823
aI419
aI757
aI883
aI803
aI1252
aI274
aI1450
aI1999
aI791
aI2073
aI737
aI799
aI1165
aI853
aI1487
aI849
aI944
aI779
aI1888
aI447
aI1530
aI992
aI780
aI837
aI811
aI178
aI24
aI291
aI304
aa(lp11
I1103
aI788
aI350
aI919
aI71
aI1175
aI847
aI1261
aI302
aI1022
aI187
aI794
aI1943
aI952
aI825
aI842
aI876
aI304
aI309
aI1803
aI781
aI1183
aI1272
aI382
aI1247
aI1830
aI1855
aI963
aI402
aI793
aI2007
aI2052
aI896
aI2093
aI802
aI1383
aI1983
aI751
aI276
aI1591
aI1658
aI833
aI279
aI1012
aI315
aI330
aI1007
aI840
aI1870
aI419
aI322
aI57
aI1974
aI73
aI1127
aI439
aI785
aI1081
aI1324
aI864
aI1044
aI1525
aI1417
aI1552
aI1761
aI2192
aI444
aI335
aI2371
aI1705
aI874
aI1772
aI1259
aI898
aI945
aI324
aI888
aI818
aI1960
aI1142
aI1398
aI1946
aI1125
aI1199
aI119
aI1938
aI861
aI1466
aI286
aI275
aI2057
aI1899
aI360
aI396
aI1407
aI262
aI1898
aI2297
aI1513
aI584
aa(lp12
I1849
aI1310
aI696
aI789
aI1058
aI458
aI2145
aI1769
aI1459
aI1825
aI311
aI845
aI816
aI1958
aI1921
aI1640
aI858
aI371
aI810
aI790
aI856
aI806
aI913
aI902
aI59
aI838
aI2215
aI867
aI1964
aI270
aI1465
aI823
aI1826
aI796
aI1041
aI1439
aI361
aI1654
aI1640
aI506
aI837
aI838
aI2122
aI1664
aI782
aI769
aI2
aI1199
aI842
aI829
aI266
aI813
aI1367
aI2056
aI2014
aI1154
aI284
aI957
aI2010
aI1262
aI2018
aI1774
aI894
aI1310
aI1582
aI832
aI918
aI270
aI1336
aI1791
aI1049
aI1130
aI1378
aI308
aI159
aI1035
aI1008
aI1329
aI1118
aI1205
aI795
aI2448
aI2004
aI2097
aI1886
aI299
aI608
aI1052
aI307
aI2602
aI822
aI306
aI1782
aI1660
aI286
aI81
aI2086
aI2904
aI888
aI4
aa(lp13
I1521
aI2062
aI1850
aI1044
aI1315
aI2425
aI796
aI4808
aI990
aI2149
aI1855
aI1428
aI1055
aI2001
aI2785
aI519
aI482
aI1859
aI1935
aI1669
aI848
aI1913
aI1878
aI973
aI1253
aI1167
aI1995
aI786
aI462
aI2213
aI378
aI770
aI3079
aI38
aI2211
aI2492
aI1182
aI933
aI1022
aI1940
aI362
aI254
aI2271
aI1078
aI925
aI1425
aI523
aI976
aI2106
aI901
aI1954
aI2112
aI1050
aI1797
aI2182
aI883
aI1215
aI301
aI1885
aI995
aI2179
aI1526
aI942
aI919
aI302
aI863
aI373
aI930
aI1857
aI403
aI1020
aI897
aI1759
aI2160
aI763
aI2394
aI839
aI2094
aI2070
aI866
aI1383
aI2213
aI305
aI1955
aI1847
aI2042
aI2412
aI753
aI1795
aI484
aI1309
aI962
aI1516
aI296
aI1518
aI1940
aI1813
aI1908
aI1772
aI849
aa(lp14
I282
aI53
aI2244
aI2558
aI2154
aI1870
aI850
aI2243
aI378
aI2640
aI1898
aI1550
aI2932
aI1287
aI305
aI921
aI1700
aI3016
aI2531
aI267
aI1133
aI1790
aI3282
aI1191
aI1202
aI316
aI2061
aI3263
aI2490
aI854
aI943
aI3055
aI871
aI1062
aI951
aI835
aI1107
aI800
aI2003
aI1848
aI2541
aI1847
aI4
aI1450
aI768
aI758
aI1973
aI1843
aI2122
aI1027
aI2043
aI1311
aI2126
aI2371
aI1015
aI871
aI2196
aI1557
aI2086
aI2069
aI536
aI1131
aI2278
aI626
aI920
aI2030
aI701
aI827
aI2031
aI1540
aI761
aI2003
aI848
aI1473
aI3497
aI75
aI2026
aI1990
aI1534
aI357
aI823
aI3695
aI3697
aI830
aI952
aI880
aI1083
aI3578
aI2475
aI1815
aI1117
aI113
aI1904
aI1172
aI999
aI1501
aI2312
aI493
aI986
aI929
aasS'experiment'
p15
(dp16
S'trialsPerAgent'
p17
I100
sS'numAgents'
p18
(lp19
I200
aI200
aI200
aI200
aI200
aI200
aI200
aI200
aI200
aI200
asS'D'
p20
(lp21
I10
aI15
aI20
aI25
aI30
aI35
aI40
aI45
aI50
aI55
assS'type'
p22
S'LinesUniformInD'
p23
s.