(dp0
S'argsDesc'
p1
S'K = 3'
p2
sS'data'
p3
(lp4
(lp5
I685
aI4682
aI9183
aI652
aI2289
aI1842
aI2807
aI4733
aI3420
aI11786
aI4361
aI2147
aI1493
aI2401
aI92
aI798
aI1345
aI554
aI3118
aI1011
aI401
aI1665
aI3300
aI428
aI1988
aI4646
aI3040
aI5581
aI3571
aI891
aI6
aI3439
aI2971
aI1413
aI689
aI3726
aI2187
aI4358
aI4223
aI3025
aI12044
aI6861
aI2994
aI4053
aI179
aI3030
aI2834
aI6360
aI566
aI1103
aI2399
aI3501
aI3428
aI3862
aI1170
aI2947
aI3499
aI4967
aI879
aI1502
aI937
aI50
aI1196
aI1259
aI340
aI1615
aI11412
aI99
aI4
aI2969
aI1439
aI1603
aI1130
aI2092
aI3840
aI1388
aI411
aI997
aI3951
aI138
aI3121
aI7894
aI2877
aI3700
aI129
aI3851
aI4527
aI6199
aI3491
aI1452
aI3167
aI296
aI4239
aI610
aI2018
aI9875
aI1709
aI1134
aI1764
aI10
aa(lp6
I3182
aI300
aI976
aI5331
aI964
aI3809
aI3082
aI3504
aI2892
aI4358
aI101
aI4288
aI1021
aI770
aI2469
aI453
aI3129
aI1127
aI3857
aI1020
aI696
aI953
aI1194
aI3425
aI1283
aI461
aI3374
aI603
aI1147
aI1678
aI728
aI537
aI1670
aI1025
aI2848
aI4141
aI171
aI1442
aI461
aI1684
aI3858
aI58
aI3059
aI2646
aI4159
aI3165
aI4253
aI1044
aI1140
aI105
aI2392
aI533
aI389
aI1061
aI164
aI583
aI879
aI94
aI502
aI67
aI1879
aI3118
aI1743
aI3214
aI4095
aI3129
aI1621
aI2163
aI3586
aI1174
aI3132
aI175
aI5868
aI437
aI5814
aI981
aI1600
aI4521
aI1515
aI1772
aI1049
aI3094
aI220
aI2849
aI985
aI3319
aI392
aI3972
aI1941
aI97
aI732
aI742
aI3441
aI279
aI525
aI1148
aI286
aI6323
aI999
aI2867
aa(lp7
I201
aI1886
aI1666
aI1291
aI2771
aI558
aI3238
aI3946
aI1150
aI3169
aI3055
aI499
aI1332
aI1270
aI618
aI1023
aI1156
aI1481
aI1703
aI328
aI1015
aI713
aI3324
aI3951
aI2908
aI2133
aI1015
aI635
aI333
aI1357
aI750
aI2514
aI2797
aI971
aI1019
aI2900
aI1709
aI1550
aI2870
aI1258
aI1998
aI158
aI156
aI0
aI1483
aI232
aI106
aI2072
aI85
aI2089
aI46
aI1137
aI478
aI1379
aI1921
aI1329
aI1247
aI935
aI1967
aI567
aI308
aI4552
aI6725
aI3132
aI409
aI1153
aI1092
aI165
aI407
aI4789
aI3699
aI2790
aI2956
aI1054
aI615
aI482
aI577
aI2983
aI1427
aI3127
aI186
aI10368
aI1054
aI1049
aI745
aI2162
aI706
aI409
aI1604
aI443
aI3082
aI8113
aI1168
aI1192
aI1902
aI1134
aI12
aI423
aI3507
aI1231
aa(lp8
I1169
aI1050
aI3476
aI4585
aI1242
aI1364
aI1209
aI933
aI3491
aI805
aI1137
aI129
aI3111
aI509
aI1112
aI3275
aI1049
aI1685
aI4468
aI663
aI2492
aI84
aI1559
aI1483
aI1336
aI1313
aI3309
aI155
aI1965
aI635
aI2167
aI1025
aI2751
aI2995
aI4
aI70
aI1924
aI345
aI86
aI1598
aI754
aI128
aI3144
aI574
aI658
aI1023
aI1
aI2855
aI1557
aI2309
aI3387
aI2257
aI1657
aI897
aI1827
aI1160
aI175
aI1218
aI967
aI2000
aI1159
aI389
aI495
aI2064
aI3059
aI3115
aI951
aI1064
aI1389
aI652
aI427
aI2350
aI68
aI1385
aI1028
aI1107
aI141
aI348
aI3300
aI316
aI647
aI3394
aI199
aI526
aI475
aI3446
aI1401
aI3043
aI2040
aI522
aI2990
aI302
aI2746
aI377
aI310
aI483
aI424
aI3454
aI1120
aI2353
aa(lp9
I2943
aI727
aI1510
aI1284
aI3222
aI930
aI757
aI1044
aI3168
aI3243
aI984
aI2995
aI973
aI770
aI2126
aI1229
aI2102
aI357
aI402
aI174
aI1277
aI989
aI73
aI337
aI849
aI163
aI113
aI579
aI82
aI42
aI1160
aI1160
aI87
aI3171
aI1100
aI1019
aI542
aI424
aI1124
aI3113
aI2207
aI355
aI1023
aI1873
aI72
aI1957
aI1205
aI1367
aI1249
aI1010
aI130
aI761
aI1133
aI1674
aI7
aI2183
aI355
aI4356
aI123
aI2648
aI1047
aI1830
aI2087
aI3355
aI308
aI4184
aI1234
aI1920
aI991
aI627
aI529
aI2903
aI9
aI331
aI1267
aI1246
aI3540
aI927
aI2716
aI246
aI543
aI1709
aI651
aI1132
aI2636
aI1026
aI469
aI413
aI3055
aI45
aI334
aI1212
aI1138
aI18
aI1262
aI2032
aI377
aI730
aI33
aI1044
aa(lp10
I1424
aI4331
aI1078
aI670
aI3102
aI2505
aI1505
aI2934
aI619
aI89
aI1319
aI456
aI91
aI1303
aI1253
aI113
aI4738
aI1457
aI2901
aI425
aI1284
aI442
aI325
aI1639
aI1118
aI1052
aI65
aI1348
aI1795
aI409
aI146
aI66
aI1277
aI2448
aI281
aI1227
aI1021
aI1332
aI1036
aI3499
aI123
aI985
aI1271
aI522
aI1293
aI1552
aI149
aI356
aI187
aI551
aI1040
aI1225
aI1397
aI1129
aI99
aI404
aI587
aI320
aI30
aI454
aI2152
aI610
aI634
aI985
aI2084
aI1967
aI4094
aI1256
aI349
aI70
aI158
aI2150
aI524
aI804
aI80
aI362
aI482
aI319
aI3233
aI532
aI368
aI82
aI531
aI370
aI713
aI84
aI1154
aI16
aI4438
aI3267
aI3488
aI439
aI1478
aI1674
aI2926
aI429
aI1937
aI3117
aI702
aI1803
aa(lp11
I270
aI1288
aI1094
aI358
aI1576
aI132
aI1760
aI948
aI656
aI1370
aI2125
aI2876
aI1753
aI1033
aI1358
aI2865
aI622
aI60
aI1297
aI1471
aI345
aI2414
aI444
aI1138
aI1545
aI1427
aI1948
aI1093
aI330
aI195
aI340
aI1397
aI1367
aI37
aI2124
aI1196
aI1066
aI1932
aI94
aI1201
aI1572
aI1551
aI206
aI455
aI3126
aI1081
aI2166
aI1037
aI974
aI1072
aI2455
aI1257
aI321
aI3269
aI627
aI1654
aI812
aI959
aI236
aI1637
aI90
aI1606
aI1992
aI2040
aI569
aI1315
aI1321
aI1413
aI304
aI1018
aI3181
aI397
aI3424
aI3770
aI332
aI1518
aI1059
aI1362
aI622
aI319
aI1308
aI495
aI1005
aI729
aI981
aI755
aI2956
aI2627
aI1875
aI1713
aI283
aI2949
aI3850
aI1481
aI3151
aI660
aI215
aI3285
aI404
aI952
aa(lp12
I2933
aI3236
aI126
aI2829
aI1043
aI1080
aI1763
aI26
aI1392
aI370
aI83
aI448
aI1063
aI1911
aI1232
aI672
aI852
aI301
aI288
aI134
aI1155
aI1770
aI912
aI290
aI3386
aI275
aI608
aI734
aI430
aI155
aI1165
aI1408
aI71
aI133
aI1077
aI4072
aI395
aI105
aI2191
aI1828
aI2222
aI1156
aI3969
aI115
aI75
aI1218
aI167
aI363
aI1097
aI808
aI775
aI1687
aI3128
aI1334
aI1170
aI374
aI342
aI1335
aI1087
aI2127
aI140
aI1013
aI3208
aI263
aI2465
aI336
aI39
aI1066
aI93
aI312
aI916
aI3303
aI491
aI1575
aI1418
aI753
aI2872
aI314
aI1406
aI1807
aI310
aI1040
aI1427
aI112
aI1065
aI1479
aI1822
aI313
aI308
aI1392
aI676
aI492
aI2197
aI655
aI1372
aI2172
aI1439
aI449
aI4
aI1075
aa(lp13
I368
aI3145
aI92
aI1102
aI955
aI3743
aI1210
aI2934
aI497
aI384
aI2298
aI2622
aI356
aI2324
aI360
aI1076
aI3320
aI781
aI3132
aI920
aI316
aI54
aI3006
aI982
aI623
aI997
aI16
aI1102
aI2914
aI402
aI1172
aI4
aI1173
aI649
aI3111
aI561
aI1295
aI78
aI393
aI980
aI687
aI668
aI454
aI1874
aI547
aI325
aI394
aI474
aI1029
aI200
aI62
aI139
aI987
aI2821
aI3429
aI80
aI1085
aI149
aI1450
aI990
aI1065
aI3443
aI233
aI290
aI1329
aI331
aI87
aI147
aI1185
aI1616
aI2385
aI1068
aI1512
aI100
aI955
aI63
aI2955
aI378
aI3898
aI666
aI1602
aI25
aI396
aI3605
aI61
aI1197
aI471
aI393
aI81
aI972
aI166
aI3258
aI3175
aI370
aI1239
aI3334
aI1340
aI4
aI1902
aI1000
aa(lp14
I981
aI2187
aI960
aI964
aI1347
aI805
aI19
aI460
aI1639
aI584
aI1302
aI500
aI1916
aI1083
aI636
aI455
aI1335
aI392
aI2276
aI3019
aI2355
aI743
aI179
aI132
aI1130
aI2127
aI1627
aI3014
aI1250
aI387
aI1326
aI585
aI320
aI78
aI27
aI8
aI1614
aI2937
aI969
aI641
aI109
aI321
aI69
aI108
aI321
aI2041
aI1442
aI345
aI511
aI1513
aI334
aI1250
aI76
aI53
aI3177
aI380
aI438
aI1077
aI787
aI2879
aI1070
aI496
aI463
aI1342
aI320
aI7
aI1951
aI2512
aI1965
aI1050
aI1377
aI1032
aI1019
aI2624
aI664
aI476
aI98
aI1204
aI303
aI1253
aI78
aI170
aI3
aI933
aI2517
aI156
aI99
aI890
aI610
aI300
aI1086
aI1209
aI891
aI1448
aI964
aI295
aI644
aI1263
aI1104
aI639
aa(lp15
I3149
aI1015
aI2463
aI1450
aI1002
aI142
aI2230
aI75
aI914
aI1938
aI1057
aI132
aI2088
aI1261
aI124
aI2696
aI1578
aI3216
aI3396
aI1982
aI1193
aI593
aI439
aI1021
aI305
aI214
aI567
aI958
aI485
aI487
aI327
aI1692
aI111
aI1029
aI367
aI540
aI495
aI15
aI1518
aI544
aI87
aI401
aI572
aI50
aI1332
aI713
aI540
aI1467
aI6
aI2591
aI2865
aI4
aI1305
aI104
aI1081
aI1591
aI1688
aI953
aI359
aI1856
aI690
aI1061
aI1289
aI374
aI1028
aI719
aI935
aI622
aI306
aI964
aI79
aI328
aI1015
aI1516
aI388
aI172
aI656
aI302
aI56
aI80
aI984
aI3111
aI288
aI1608
aI2292
aI392
aI2869
aI330
aI5
aI17
aI58
aI143
aI144
aI506
aI1091
aI7
aI650
aI1017
aI3382
aI3366
aa(lp16
I1000
aI2233
aI72
aI1863
aI479
aI1291
aI1135
aI1058
aI3118
aI518
aI337
aI366
aI243
aI599
aI816
aI777
aI1436
aI466
aI122
aI548
aI1458
aI1158
aI975
aI152
aI1021
aI89
aI1094
aI1745
aI990
aI1263
aI913
aI1323
aI51
aI28
aI1120
aI1378
aI120
aI912
aI344
aI1089
aI2630
aI338
aI366
aI2501
aI1229
aI281
aI1591
aI1478
aI90
aI74
aI1767
aI97
aI749
aI1424
aI22
aI681
aI1103
aI432
aI109
aI3261
aI234
aI87
aI392
aI98
aI1481
aI394
aI9
aI3212
aI1973
aI998
aI365
aI314
aI2
aI2142
aI490
aI592
aI332
aI1060
aI94
aI546
aI1750
aI281
aI5
aI959
aI1382
aI2144
aI982
aI76
aI1121
aI77
aI1993
aI2
aI1408
aI1420
aI353
aI2587
aI1874
aI303
aI1021
aI3
aa(lp17
I3053
aI1018
aI1410
aI86
aI304
aI2349
aI642
aI531
aI2629
aI3058
aI402
aI2908
aI363
aI765
aI82
aI1348
aI1473
aI131
aI382
aI3011
aI2116
aI1561
aI1885
aI1397
aI145
aI1145
aI612
aI1075
aI1066
aI2050
aI3050
aI1718
aI83
aI1093
aI3
aI362
aI693
aI1259
aI1614
aI2105
aI1061
aI759
aI317
aI802
aI1
aI3015
aI975
aI354
aI1013
aI1142
aI2923
aI1040
aI1867
aI559
aI1974
aI1045
aI1060
aI454
aI1099
aI170
aI975
aI3057
aI302
aI81
aI185
aI1107
aI1069
aI1059
aI1036
aI5
aI297
aI644
aI1402
aI1310
aI418
aI501
aI627
aI965
aI3232
aI2177
aI349
aI303
aI2
aI71
aI323
aI1133
aI1598
aI3524
aI352
aI323
aI2233
aI792
aI1645
aI685
aI651
aI84
aI1030
aI120
aI95
aI2496
aa(lp18
I58
aI2984
aI426
aI394
aI3073
aI1188
aI546
aI327
aI440
aI484
aI493
aI1008
aI3111
aI479
aI1685
aI357
aI418
aI2817
aI1005
aI551
aI2556
aI1180
aI1167
aI619
aI1004
aI2435
aI1078
aI426
aI1090
aI90
aI2783
aI887
aI1369
aI3468
aI556
aI1605
aI1017
aI962
aI934
aI85
aI1393
aI1160
aI1345
aI82
aI1281
aI1053
aI1061
aI5
aI14
aI120
aI2396
aI1085
aI412
aI418
aI422
aI253
aI1112
aI972
aI768
aI659
aI767
aI1032
aI170
aI1207
aI375
aI775
aI332
aI3102
aI200
aI1053
aI3
aI970
aI396
aI358
aI489
aI536
aI1522
aI3122
aI1127
aI372
aI3290
aI391
aI72
aI440
aI679
aI1096
aI67
aI1998
aI2990
aI467
aI1196
aI1818
aI82
aI1099
aI1103
aI403
aI663
aI42
aI1687
aI729
aa(lp19
I1609
aI1142
aI1320
aI3425
aI1011
aI664
aI1272
aI1210
aI76
aI785
aI3098
aI882
aI2906
aI165
aI16
aI1730
aI3633
aI293
aI2766
aI84
aI2311
aI434
aI349
aI553
aI999
aI317
aI1275
aI1043
aI544
aI297
aI1384
aI85
aI337
aI1001
aI1103
aI1200
aI2976
aI195
aI3177
aI537
aI978
aI278
aI1247
aI49
aI1071
aI1220
aI965
aI2099
aI362
aI2481
aI984
aI663
aI938
aI74
aI962
aI1170
aI985
aI817
aI291
aI2051
aI384
aI461
aI376
aI236
aI143
aI1006
aI1182
aI642
aI5
aI984
aI945
aI1205
aI107
aI2945
aI494
aI631
aI969
aI42
aI238
aI112
aI2910
aI456
aI1116
aI1124
aI1857
aI85
aI480
aI168
aI295
aI206
aI3358
aI1092
aI295
aI958
aI311
aI405
aI324
aI1897
aI484
aI1341
aa(lp20
I1383
aI330
aI85
aI85
aI324
aI1020
aI1002
aI386
aI305
aI411
aI322
aI1864
aI987
aI1296
aI1152
aI964
aI103
aI30
aI146
aI551
aI365
aI2819
aI2419
aI446
aI8
aI420
aI1670
aI1142
aI438
aI3314
aI1060
aI1181
aI155
aI1217
aI1543
aI1044
aI3
aI1019
aI1340
aI743
aI978
aI2435
aI378
aI1043
aI342
aI3428
aI1758
aI444
aI2098
aI417
aI86
aI93
aI1515
aI1693
aI130
aI673
aI349
aI377
aI311
aI703
aI199
aI1136
aI84
aI112
aI3078
aI187
aI453
aI81
aI393
aI197
aI2486
aI1265
aI1762
aI940
aI774
aI1075
aI1849
aI313
aI330
aI3032
aI2185
aI341
aI368
aI420
aI1420
aI1478
aI388
aI941
aI298
aI1068
aI1029
aI316
aI1067
aI1046
aI1626
aI292
aI1050
aI75
aI1019
aI1041
aa(lp21
I21
aI1
aI309
aI1991
aI355
aI311
aI1172
aI1254
aI3242
aI969
aI1851
aI2729
aI81
aI457
aI1609
aI989
aI1422
aI1637
aI297
aI538
aI1277
aI1398
aI3351
aI360
aI1571
aI180
aI768
aI1045
aI1732
aI74
aI641
aI401
aI325
aI501
aI1098
aI626
aI977
aI96
aI1371
aI1430
aI1886
aI1015
aI408
aI1131
aI364
aI376
aI34
aI78
aI1127
aI388
aI1537
aI156
aI324
aI92
aI1179
aI1203
aI782
aI362
aI652
aI403
aI982
aI522
aI1376
aI2003
aI341
aI1688
aI1055
aI251
aI1323
aI159
aI1337
aI1302
aI825
aI97
aI16
aI1257
aI3067
aI2318
aI310
aI1753
aI672
aI1017
aI1733
aI1545
aI2427
aI281
aI313
aI978
aI210
aI594
aI2013
aI1084
aI83
aI115
aI871
aI933
aI167
aI1088
aI338
aI640
aa(lp22
I184
aI1250
aI597
aI1458
aI363
aI1040
aI616
aI339
aI3061
aI832
aI1932
aI1517
aI1197
aI816
aI1790
aI1592
aI332
aI15
aI76
aI1278
aI1195
aI413
aI437
aI1391
aI1048
aI110
aI310
aI3
aI1320
aI435
aI341
aI1886
aI2977
aI984
aI851
aI73
aI1545
aI1336
aI606
aI136
aI376
aI601
aI1198
aI1556
aI1033
aI451
aI84
aI200
aI1169
aI466
aI553
aI334
aI86
aI2049
aI398
aI84
aI98
aI469
aI1467
aI3092
aI783
aI3013
aI288
aI194
aI1055
aI64
aI305
aI77
aI1029
aI22
aI929
aI196
aI1476
aI293
aI2954
aI1052
aI606
aI186
aI1079
aI1101
aI1274
aI1671
aI110
aI460
aI1893
aI1058
aI634
aI3027
aI1826
aI986
aI768
aI967
aI258
aI624
aI730
aI95
aI367
aI488
aI663
aI335
aa(lp23
I547
aI2623
aI1376
aI1972
aI738
aI1039
aI1247
aI3
aI1530
aI79
aI973
aI462
aI695
aI1296
aI138
aI359
aI105
aI1051
aI151
aI1581
aI633
aI3360
aI1654
aI381
aI405
aI898
aI87
aI290
aI4609
aI149
aI756
aI1666
aI406
aI81
aI593
aI853
aI512
aI245
aI993
aI3184
aI1219
aI95
aI431
aI970
aI82
aI662
aI797
aI1109
aI350
aI1124
aI2380
aI279
aI1491
aI356
aI1167
aI1023
aI1470
aI87
aI1066
aI86
aI424
aI5
aI428
aI312
aI535
aI306
aI306
aI404
aI509
aI2958
aI1068
aI737
aI334
aI1750
aI526
aI571
aI378
aI1607
aI383
aI943
aI2
aI291
aI117
aI974
aI1151
aI85
aI2768
aI2826
aI915
aI1047
aI302
aI384
aI330
aI210
aI9
aI1304
aI1016
aI932
aI381
aI1320
aa(lp24
I246
aI968
aI111
aI2403
aI68
aI1106
aI142
aI359
aI743
aI367
aI375
aI1016
aI1495
aI1530
aI458
aI1035
aI1271
aI127
aI1056
aI575
aI1156
aI3140
aI1041
aI165
aI390
aI333
aI496
aI68
aI4
aI1491
aI80
aI965
aI84
aI338
aI376
aI347
aI343
aI474
aI1160
aI332
aI353
aI209
aI582
aI83
aI1083
aI1083
aI0
aI92
aI19
aI704
aI295
aI306
aI1397
aI449
aI372
aI1036
aI681
aI479
aI460
aI356
aI101
aI1037
aI1068
aI967
aI1438
aI89
aI517
aI1216
aI2008
aI440
aI2849
aI36
aI2873
aI1040
aI365
aI527
aI2021
aI355
aI1076
aI220
aI943
aI282
aI3041
aI660
aI469
aI84
aI345
aI134
aI974
aI1363
aI342
aI431
aI338
aI995
aI357
aI1875
aI1
aI3152
aI40
aI742
aasS'experiment'
p25
(dp26
S'trialsPerAgent'
p27
I100
sS'numAgents'
p28
(lp29
I10
aI20
aI30
aI40
aI50
aI60
aI70
aI80
aI90
aI100
aI110
aI120
aI130
aI140
aI150
aI160
aI170
aI180
aI190
aI200
asS'D'
p30
(lp31
I20
aI20
aI20
aI20
aI20
aI20
aI20
aI20
aI20
aI20
aI20
aI20
aI20
aI20
aI20
aI20
aI20
aI20
aI20
aI20
assS'type'
p32
S'LinesUniformInAll'
p33
s.