(dp0
S'argsDesc'
p1
S'K = 6'
p2
sS'data'
p3
(lp4
(lp5
I549
aI3
aI121
aI608
aI770
aI67
aI687
aI795
aI2689
aI37
aI818
aI559
aI555
aI509
aI569
aI2429
aI2256
aI763
aI639
aI772
aI1373
aI1415
aI798
aI929
aI577
aI458
aI864
aI634
aI70
aI37
aI2914
aI592
aI603
aI564
aI999
aI1071
aI11
aI949
aI193
aI406
aI6
aI623
aI3
aI1176
aI589
aI45
aI60
aI126
aI551
aI41
aI833
aI563
aI606
aI582
aI551
aI7
aI158
aI202
aI586
aI59
aI1205
aI661
aI4
aI2396
aI353
aI2685
aI3
aI6
aI134
aI701
aI601
aI522
aI777
aI251
aI147
aI241
aI578
aI90
aI139
aI835
aI553
aI5
aI541
aI29
aI274
aI591
aI40
aI2
aI866
aI73
aI797
aI9
aI618
aI4
aI738
aI641
aI958
aI31
aI558
aI2268
aa(lp6
I13
aI3452
aI810
aI1118
aI1219
aI581
aI2691
aI2365
aI733
aI16
aI2683
aI2454
aI2443
aI2392
aI6089
aI2408
aI42
aI0
aI2488
aI689
aI609
aI733
aI3695
aI141
aI2577
aI2617
aI2613
aI1749
aI718
aI2934
aI527
aI2831
aI641
aI3367
aI1891
aI706
aI1162
aI2435
aI1470
aI4742
aI2346
aI4406
aI631
aI5
aI2326
aI951
aI2331
aI605
aI2382
aI1776
aI1948
aI240
aI634
aI942
aI570
aI2902
aI818
aI2361
aI2927
aI3064
aI679
aI1195
aI2716
aI687
aI923
aI900
aI4908
aI7624
aI2332
aI88
aI2530
aI92
aI3838
aI2477
aI3
aI1186
aI2529
aI636
aI2467
aI93
aI3134
aI2510
aI2603
aI4279
aI537
aI7
aI839
aI7889
aI2448
aI585
aI1409
aI762
aI3
aI2741
aI2291
aI5908
aI2685
aI749
aI3703
aI679
aa(lp7
I3150
aI2667
aI2320
aI554
aI8379
aI7666
aI1783
aI646
aI2634
aI600
aI7869
aI2613
aI1438
aI10727
aI4889
aI3
aI4701
aI2702
aI2444
aI1619
aI751
aI3183
aI2400
aI2348
aI7829
aI7661
aI7891
aI7470
aI10336
aI2480
aI2725
aI4299
aI249
aI1
aI2589
aI9316
aI2993
aI966
aI576
aI3170
aI2979
aI8426
aI1961
aI10886
aI543
aI2903
aI2078
aI2480
aI3299
aI7893
aI624
aI648
aI2333
aI614
aI1439
aI7969
aI2697
aI3358
aI3945
aI3162
aI3230
aI50
aI2778
aI7856
aI10486
aI2361
aI7612
aI5795
aI551
aI2480
aI1032
aI2431
aI3
aI1
aI2362
aI4370
aI2543
aI3020
aI2856
aI984
aI1941
aI130
aI10
aI586
aI2687
aI2407
aI10505
aI7706
aI3370
aI2767
aI2322
aI611
aI7961
aI3618
aI540
aI2405
aI11
aI8193
aI724
aI868
aa(lp8
I11458
aI2539
aI4728
aI8145
aI5624
aI3014
aI4609
aI7620
aI2536
aI8011
aI10360
aI2447
aI9172
aI1504
aI7722
aI2624
aI2570
aI9015
aI11989
aI7842
aI8531
aI2410
aI9995
aI620
aI5087
aI7868
aI6349
aI7858
aI8576
aI788
aI6635
aI2295
aI8931
aI582
aI17757
aI11546
aI8663
aI11828
aI4053
aI622
aI1354
aI2537
aI8027
aI9711
aI8406
aI18622
aI3157
aI7608
aI11413
aI25948
aI2115
aI7941
aI2575
aI2819
aI2567
aI4809
aI2363
aI2425
aI5202
aI10359
aI8395
aI33
aI2879
aI3814
aI4317
aI1339
aI4324
aI7804
aI3565
aI15052
aI3998
aI12926
aI3135
aI688
aI3810
aI586
aI15862
aI150
aI641
aI9839
aI4098
aI8185
aI8260
aI2261
aI9229
aI8243
aI7747
aI8034
aI70
aI3155
aI7944
aI2449
aI7862
aI7824
aI2436
aI3
aI6500
aI972
aI11198
aI3678
aa(lp9
I23345
aI19025
aI1605
aI7691
aI1726
aI23420
aI2793
aI27147
aI9980
aI4436
aI23441
aI8347
aI23852
aI12773
aI2243
aI2018
aI1034
aI30958
aI25301
aI2305
aI10743
aI554
aI4291
aI274
aI12857
aI23070
aI23248
aI4351
aI10700
aI9030
aI9330
aI27791
aI3893
aI2393
aI25082
aI8290
aI23083
aI27049
aI137
aI2689
aI3455
aI8196
aI10036
aI24335
aI2525
aI4564
aI9307
aI17679
aI643
aI3123
aI8361
aI10818
aI23330
aI24361
aI601
aI25275
aI8053
aI22950
aI10643
aI3427
aI7730
aI10205
aI568
aI12239
aI15639
aI8290
aI8046
aI5734
aI20434
aI331
aI5811
aI7910
aI9666
aI16527
aI24848
aI10602
aI23786
aI8032
aI8391
aI26297
aI11545
aI7978
aI17354
aI2577
aI7710
aI5714
aI24053
aI24049
aI9198
aI13314
aI8213
aI23533
aI8469
aI905
aI3510
aI23236
aI17967
aI5637
aI7713
aI2651
aa(lp10
I15411
aI34455
aI11529
aI8152
aI16551
aI8005
aI600
aI26487
aI13940
aI38
aI8019
aI31416
aI3271
aI8188
aI1007
aI2802
aI102
aI14243
aI10730
aI4244
aI23212
aI15958
aI26326
aI18871
aI5705
aI8040
aI23468
aI649
aI24692
aI30779
aI1058
aI718
aI9665
aI2327
aI27204
aI2731
aI25344
aI4192
aI8650
aI2398
aI3420
aI11396
aI2892
aI18500
aI15382
aI10541
aI7915
aI26331
aI8065
aI7877
aI8873
aI1037
aI7996
aI8139
aI25976
aI35192
aI1832
aI24614
aI639
aI12014
aI26432
aI1106
aI25659
aI5032
aI5546
aI7936
aI24597
aI12901
aI7726
aI482
aI554
aI14726
aI2977
aI13593
aI28586
aI25645
aI1593
aI23766
aI31136
aI7426
aI24860
aI8114
aI8339
aI31066
aI6263
aI10450
aI2485
aI596
aI23531
aI24209
aI7722
aI13046
aI17078
aI27333
aI8127
aI32021
aI8451
aI855
aI24990
aI4790
aa(lp11
I955
aI23902
aI7562
aI52437
aI24703
aI28069
aI2750
aI1504
aI2303
aI23692
aI26172
aI26539
aI18639
aI39237
aI2349
aI24594
aI9879
aI9188
aI7868
aI710
aI8822
aI10844
aI8186
aI2463
aI9136
aI3454
aI30477
aI24292
aI32613
aI24166
aI23685
aI24175
aI23893
aI593
aI68879
aI8122
aI9305
aI4180
aI23532
aI27115
aI7906
aI3689
aI23326
aI858
aI23816
aI30138
aI977
aI24448
aI42422
aI56324
aI23778
aI1659
aI2694
aI8219
aI10122
aI23224
aI11189
aI37823
aI306
aI29031
aI25077
aI47557
aI11520
aI4005
aI10266
aI25950
aI7682
aI23953
aI2965
aI8501
aI32283
aI16709
aI24245
aI1548
aI16962
aI23949
aI2859
aI9748
aI3117
aI613
aI7943
aI25416
aI25802
aI8108
aI29531
aI1201
aI8318
aI590
aI26899
aI10597
aI12707
aI23528
aI43969
aI23755
aI3117
aI14
aI24132
aI1189
aI15095
aI11678
aa(lp12
I54532
aI26946
aI23473
aI72613
aI26223
aI24813
aI42939
aI39242
aI10971
aI607
aI76708
aI73117
aI7710
aI8281
aI8425
aI31988
aI18502
aI12012
aI10656
aI2545
aI7720
aI7630
aI553
aI7967
aI861
aI53729
aI13915
aI50
aI8455
aI9059
aI24449
aI8057
aI24339
aI28385
aI2663
aI27252
aI8426
aI9355
aI71595
aI15774
aI31670
aI59
aI9812
aI28528
aI25159
aI39774
aI23636
aI51303
aI11103
aI25773
aI15590
aI32174
aI11892
aI10401
aI24394
aI73327
aI69133
aI7718
aI15817
aI27760
aI7503
aI13493
aI26548
aI34209
aI77945
aI1149
aI24150
aI5453
aI68346
aI72440
aI29138
aI56221
aI47186
aI3
aI51591
aI9765
aI7628
aI27396
aI40150
aI79158
aI10430
aI40643
aI9757
aI8804
aI28593
aI497
aI41478
aI23342
aI39628
aI1
aI23438
aI23407
aI44807
aI23592
aI24141
aI2564
aI28788
aI8835
aI47616
aI8824
aa(lp13
I9628
aI73448
aI44148
aI68917
aI5896
aI23556
aI70411
aI25453
aI68963
aI42823
aI33232
aI30017
aI42271
aI74819
aI26881
aI26506
aI2468
aI23281
aI52241
aI7853
aI23435
aI40568
aI76180
aI73135
aI69392
aI35264
aI2984
aI82234
aI23596
aI7756
aI30238
aI10048
aI44064
aI50961
aI2811
aI29587
aI2875
aI77459
aI44720
aI30322
aI56449
aI24916
aI7951
aI15230
aI2431
aI26980
aI985
aI16165
aI70005
aI5611
aI7686
aI25048
aI87234
aI110798
aI2478
aI19
aI66715
aI25444
aI69298
aI27218
aI111926
aI152896
aI49324
aI72350
aI2401
aI24476
aI79274
aI33428
aI25133
aI28996
aI9043
aI13744
aI56511
aI46561
aI5874
aI35317
aI2335
aI35741
aI24050
aI2424
aI24525
aI18916
aI30528
aI22566
aI23361
aI3568
aI5189
aI7983
aI69465
aI14732
aI69409
aI78969
aI25486
aI68495
aI1472
aI2891
aI2754
aI25429
aI22750
aI26460
aa(lp14
I49198
aI11237
aI69857
aI24302
aI25687
aI68186
aI75402
aI116441
aI16018
aI54079
aI31162
aI45228
aI23948
aI39487
aI31679
aI3088
aI42803
aI89448
aI70948
aI32495
aI29755
aI28232
aI30617
aI7759
aI27742
aI3721
aI34418
aI7823
aI69101
aI13809
aI25116
aI28754
aI23668
aI24100
aI8042
aI94523
aI119
aI70532
aI53927
aI67351
aI11532
aI34791
aI72737
aI13618
aI19516
aI28757
aI94656
aI81183
aI70252
aI24793
aI69152
aI23714
aI23393
aI101701
aI77172
aI36671
aI67735
aI8216
aI22997
aI23679
aI8850
aI25206
aI70094
aI26214
aI46555
aI48383
aI1259
aI6135
aI12344
aI568
aI33822
aI19563
aI69256
aI5
aI9716
aI7696
aI69679
aI81205
aI69120
aI52348
aI23088
aI30408
aI67481
aI34231
aI29042
aI23431
aI71377
aI25612
aI42255
aI55510
aI677
aI12170
aI73770
aI23666
aI542
aI32887
aI95448
aI37802
aI23805
aI8464
aasS'experiment'
p15
(dp16
S'trialsPerAgent'
p17
I100
sS'numAgents'
p18
(lp19
I200
aI200
aI200
aI200
aI200
aI200
aI200
aI200
aI200
aI200
asS'D'
p20
(lp21
I10
aI15
aI20
aI25
aI30
aI35
aI40
aI45
aI50
aI55
assS'type'
p22
S'LinesUniformInAll'
p23
s.