(dp0
S'argsDesc'
p1
S'D'
p2
sS'data'
p3
(lp4
(lp5
I5401
aI2191
aI5650
aI6200
aI2106
aI559
aI656
aI656
aI1997
aI24481
aI4069
aI5631
aI6668
aI9
aI1037
aI3703
aI85
aI3703
aI1627
aI27
aI4467
aI9813
aI3697
aI7266
aI4849
aI74
aI160
aI8871
aI5321
aI867
aI1340
aI1988
aI523
aI55
aI553
aI1986
aI1786
aI5824
aI3259
aI1077
aI4180
aI1227
aI833
aI484
aI1093
aI2722
aI5374
aI4870
aI5733
aI26614
aI5985
aI323
aI6156
aI0
aI183
aI3404
aI3418
aI2938
aI3451
aI10791
aI6883
aI750
aI12539
aI3007
aI3882
aI667
aI306
aI859
aI4640
aI5826
aI9463
aI5526
aI8
aI1489
aI14150
aI1862
aI1479
aI1726
aI3661
aI25
aI1
aI303
aI6996
aI1471
aI4483
aI1687
aI2794
aI2016
aI4742
aI184
aI13720
aI686
aI737
aI6928
aI1487
aI207
aI32
aI3334
aI4248
aI2163
aa(lp6
I3236
aI48
aI2344
aI2765
aI664
aI9257
aI141
aI5324
aI4644
aI109
aI35
aI3307
aI45
aI695
aI2676
aI2299
aI80
aI2422
aI32
aI8
aI3197
aI507
aI54
aI34
aI1115
aI286
aI2951
aI1542
aI16
aI1723
aI645
aI509
aI83
aI2390
aI281
aI746
aI23
aI1810
aI1104
aI936
aI1376
aI421
aI499
aI160
aI1699
aI6392
aI58
aI128
aI1531
aI3198
aI2953
aI1079
aI149
aI1961
aI46
aI30
aI1357
aI4630
aI2169
aI1279
aI61
aI4367
aI1916
aI1622
aI20
aI21
aI1079
aI726
aI1443
aI2201
aI768
aI2551
aI641
aI1539
aI588
aI1168
aI1617
aI1225
aI736
aI3373
aI159
aI2807
aI253
aI515
aI1431
aI2167
aI18
aI533
aI32
aI126
aI1043
aI2084
aI3310
aI683
aI259
aI4820
aI660
aI4565
aI385
aI3333
aa(lp7
I966
aI3091
aI340
aI1980
aI131
aI1684
aI36
aI141
aI14
aI110
aI128
aI92
aI15
aI106
aI362
aI1689
aI909
aI4575
aI463
aI1707
aI531
aI20
aI1726
aI1103
aI886
aI2459
aI684
aI248
aI178
aI12
aI190
aI3120
aI30
aI482
aI160
aI38
aI321
aI291
aI1014
aI2056
aI609
aI262
aI100
aI1941
aI2024
aI54
aI47
aI72
aI1262
aI65
aI1074
aI441
aI3034
aI300
aI401
aI223
aI172
aI365
aI217
aI2042
aI794
aI181
aI1076
aI818
aI3067
aI321
aI5630
aI7918
aI235
aI1043
aI39
aI129
aI1960
aI342
aI486
aI2062
aI9144
aI1720
aI96
aI2510
aI637
aI643
aI1119
aI1113
aI445
aI405
aI3985
aI345
aI8
aI3802
aI3309
aI165
aI3248
aI1196
aI3214
aI2699
aI507
aI2130
aI612
aI1747
aa(lp8
I384
aI166
aI24
aI90
aI254
aI2028
aI93
aI54
aI307
aI470
aI160
aI1309
aI2054
aI193
aI112
aI637
aI380
aI149
aI612
aI2292
aI825
aI1546
aI2164
aI1627
aI1342
aI75
aI1364
aI134
aI50
aI151
aI1873
aI22
aI932
aI1170
aI170
aI180
aI575
aI45
aI133
aI22
aI208
aI1134
aI4505
aI54
aI770
aI299
aI234
aI1914
aI4635
aI2415
aI692
aI486
aI595
aI799
aI1541
aI163
aI468
aI191
aI138
aI897
aI1030
aI403
aI427
aI603
aI1854
aI15
aI306
aI311
aI304
aI3483
aI479
aI1420
aI1921
aI74
aI1699
aI322
aI160
aI120
aI46
aI2281
aI537
aI350
aI959
aI1581
aI431
aI487
aI2340
aI114
aI2864
aI752
aI9
aI26
aI240
aI750
aI1203
aI1189
aI1699
aI300
aI958
aI736
aa(lp9
I307
aI1302
aI527
aI56
aI204
aI822
aI178
aI1263
aI247
aI230
aI488
aI372
aI37
aI827
aI10
aI15
aI3026
aI1448
aI104
aI437
aI945
aI5
aI329
aI1094
aI45
aI178
aI1247
aI409
aI59
aI155
aI43
aI142
aI204
aI168
aI239
aI410
aI2716
aI26
aI546
aI48
aI861
aI1678
aI1195
aI517
aI38
aI673
aI55
aI42
aI439
aI1329
aI282
aI279
aI1232
aI353
aI152
aI282
aI622
aI69
aI420
aI323
aI563
aI2413
aI44
aI819
aI147
aI184
aI690
aI1340
aI336
aI118
aI733
aI296
aI642
aI538
aI1552
aI274
aI101
aI445
aI2686
aI1578
aI406
aI187
aI44
aI594
aI692
aI160
aI380
aI184
aI30
aI342
aI339
aI1208
aI3
aI1509
aI439
aI481
aI115
aI28
aI756
aI219
aa(lp10
I179
aI562
aI663
aI23
aI262
aI578
aI1017
aI801
aI1080
aI399
aI60
aI1554
aI1022
aI5
aI907
aI335
aI872
aI31
aI1110
aI1787
aI962
aI228
aI37
aI1017
aI346
aI298
aI342
aI53
aI445
aI566
aI26
aI2918
aI1481
aI262
aI210
aI30
aI227
aI14
aI303
aI726
aI848
aI583
aI96
aI487
aI109
aI764
aI78
aI257
aI33
aI276
aI56
aI685
aI2023
aI597
aI64
aI219
aI26
aI412
aI109
aI509
aI20
aI583
aI60
aI129
aI565
aI260
aI1022
aI40
aI78
aI606
aI19
aI36
aI293
aI185
aI910
aI96
aI274
aI96
aI494
aI21
aI585
aI250
aI712
aI3
aI3
aI29
aI19
aI119
aI230
aI305
aI128
aI846
aI49
aI73
aI1611
aI318
aI144
aI1232
aI37
aI1055
aa(lp11
I298
aI229
aI742
aI284
aI54
aI34
aI76
aI247
aI527
aI932
aI409
aI103
aI457
aI655
aI122
aI298
aI1454
aI19
aI31
aI52
aI420
aI740
aI390
aI8
aI527
aI649
aI81
aI147
aI199
aI1110
aI126
aI402
aI23
aI567
aI750
aI264
aI61
aI19
aI1081
aI42
aI52
aI36
aI26
aI81
aI319
aI257
aI43
aI616
aI1036
aI316
aI22
aI44
aI368
aI376
aI1457
aI80
aI455
aI27
aI109
aI353
aI193
aI321
aI436
aI920
aI83
aI314
aI472
aI33
aI383
aI634
aI136
aI96
aI1275
aI123
aI553
aI236
aI18
aI33
aI100
aI262
aI153
aI5
aI39
aI386
aI13
aI93
aI1154
aI139
aI615
aI281
aI131
aI402
aI540
aI506
aI370
aI603
aI48
aI51
aI26
aI1080
aa(lp12
I1606
aI120
aI961
aI116
aI191
aI607
aI49
aI427
aI242
aI565
aI444
aI115
aI38
aI27
aI121
aI10
aI33
aI430
aI20
aI337
aI770
aI149
aI163
aI411
aI199
aI507
aI548
aI417
aI393
aI1141
aI26
aI23
aI45
aI806
aI860
aI93
aI945
aI37
aI1916
aI772
aI596
aI842
aI32
aI323
aI243
aI15
aI119
aI1221
aI237
aI596
aI143
aI354
aI242
aI45
aI332
aI94
aI235
aI183
aI28
aI148
aI138
aI263
aI1193
aI409
aI68
aI54
aI1023
aI41
aI363
aI1130
aI101
aI86
aI838
aI36
aI146
aI261
aI462
aI25
aI41
aI48
aI300
aI32
aI140
aI1505
aI1304
aI191
aI223
aI137
aI41
aI237
aI129
aI24
aI1033
aI150
aI43
aI28
aI91
aI65
aI171
aI491
aa(lp13
I101
aI285
aI48
aI65
aI10
aI46
aI900
aI156
aI127
aI574
aI555
aI21
aI148
aI50
aI286
aI35
aI50
aI734
aI75
aI26
aI79
aI68
aI365
aI359
aI198
aI229
aI41
aI153
aI31
aI526
aI463
aI266
aI95
aI279
aI247
aI304
aI361
aI79
aI80
aI571
aI1242
aI363
aI364
aI2985
aI1087
aI408
aI2351
aI385
aI55
aI277
aI24
aI28
aI106
aI85
aI188
aI104
aI30
aI266
aI198
aI248
aI971
aI101
aI26
aI228
aI478
aI180
aI277
aI279
aI305
aI13
aI51
aI564
aI4
aI365
aI274
aI21
aI303
aI36
aI191
aI274
aI298
aI489
aI393
aI36
aI586
aI15
aI166
aI780
aI99
aI12
aI27
aI820
aI90
aI263
aI468
aI743
aI78
aI225
aI309
aI48
aa(lp14
I156
aI14
aI54
aI601
aI649
aI145
aI353
aI58
aI117
aI348
aI236
aI292
aI200
aI79
aI167
aI328
aI39
aI34
aI91
aI320
aI303
aI714
aI13
aI221
aI46
aI1123
aI738
aI1048
aI29
aI343
aI2349
aI379
aI48
aI712
aI50
aI46
aI200
aI520
aI841
aI736
aI447
aI269
aI276
aI85
aI141
aI377
aI25
aI800
aI69
aI177
aI92
aI947
aI596
aI86
aI10
aI418
aI155
aI156
aI29
aI47
aI899
aI39
aI28
aI358
aI852
aI157
aI624
aI244
aI186
aI20
aI173
aI822
aI349
aI30
aI90
aI44
aI297
aI755
aI1506
aI162
aI286
aI551
aI122
aI197
aI312
aI6
aI33
aI138
aI14
aI11
aI66
aI355
aI19
aI242
aI1046
aI18
aI58
aI20
aI1183
aI66
aa(lp15
I104
aI415
aI239
aI41
aI45
aI178
aI242
aI344
aI160
aI310
aI63
aI62
aI37
aI22
aI549
aI53
aI404
aI152
aI332
aI157
aI42
aI135
aI128
aI25
aI34
aI76
aI111
aI74
aI211
aI77
aI34
aI47
aI152
aI7
aI8
aI34
aI419
aI80
aI39
aI52
aI31
aI27
aI145
aI227
aI428
aI323
aI142
aI70
aI45
aI13
aI502
aI29
aI330
aI241
aI706
aI291
aI258
aI140
aI110
aI12
aI207
aI582
aI286
aI19
aI618
aI351
aI29
aI50
aI723
aI244
aI41
aI87
aI464
aI194
aI378
aI60
aI128
aI185
aI205
aI20
aI98
aI106
aI37
aI328
aI118
aI39
aI120
aI620
aI105
aI218
aI83
aI516
aI41
aI406
aI26
aI15
aI211
aI633
aI443
aI148
aa(lp16
I1282
aI853
aI33
aI23
aI980
aI47
aI265
aI109
aI75
aI47
aI23
aI46
aI221
aI48
aI362
aI132
aI686
aI168
aI382
aI190
aI124
aI339
aI338
aI23
aI181
aI17
aI502
aI1317
aI98
aI292
aI33
aI105
aI68
aI95
aI421
aI193
aI263
aI20
aI548
aI970
aI146
aI21
aI161
aI39
aI124
aI773
aI380
aI426
aI52
aI27
aI288
aI24
aI464
aI103
aI78
aI34
aI180
aI37
aI33
aI46
aI177
aI1310
aI1725
aI13
aI242
aI8
aI17
aI582
aI47
aI149
aI623
aI851
aI23
aI180
aI31
aI845
aI257
aI54
aI547
aI28
aI26
aI218
aI147
aI58
aI7
aI53
aI29
aI29
aI46
aI534
aI120
aI93
aI1092
aI135
aI38
aI83
aI490
aI25
aI293
aI43
aa(lp17
I542
aI544
aI131
aI21
aI39
aI70
aI536
aI28
aI506
aI186
aI288
aI245
aI37
aI9
aI170
aI204
aI102
aI34
aI1329
aI40
aI17
aI47
aI291
aI79
aI197
aI9
aI101
aI272
aI7
aI32
aI127
aI191
aI113
aI138
aI412
aI38
aI30
aI50
aI610
aI217
aI862
aI29
aI208
aI208
aI109
aI36
aI35
aI218
aI129
aI51
aI303
aI919
aI5
aI616
aI356
aI1122
aI27
aI1217
aI205
aI149
aI426
aI255
aI18
aI262
aI83
aI14
aI377
aI200
aI32
aI109
aI61
aI55
aI9
aI119
aI304
aI427
aI328
aI1061
aI39
aI245
aI25
aI12
aI204
aI99
aI25
aI23
aI206
aI544
aI296
aI34
aI37
aI658
aI555
aI72
aI29
aI259
aI112
aI492
aI150
aI65
aa(lp18
I552
aI439
aI42
aI500
aI231
aI45
aI432
aI30
aI156
aI25
aI56
aI258
aI186
aI435
aI246
aI40
aI47
aI827
aI205
aI31
aI139
aI341
aI321
aI136
aI76
aI160
aI327
aI45
aI36
aI284
aI405
aI22
aI102
aI123
aI506
aI185
aI28
aI35
aI41
aI354
aI297
aI66
aI49
aI143
aI157
aI39
aI351
aI24
aI55
aI365
aI42
aI0
aI438
aI297
aI82
aI138
aI515
aI72
aI31
aI97
aI329
aI928
aI120
aI973
aI15
aI216
aI347
aI227
aI493
aI248
aI218
aI57
aI547
aI189
aI27
aI166
aI42
aI12
aI112
aI67
aI11
aI27
aI67
aI860
aI30
aI413
aI203
aI55
aI48
aI48
aI153
aI53
aI172
aI1051
aI396
aI25
aI86
aI41
aI176
aI23
aa(lp19
I141
aI11
aI844
aI64
aI72
aI66
aI13
aI224
aI213
aI6
aI240
aI52
aI136
aI38
aI1083
aI11
aI67
aI38
aI191
aI380
aI188
aI671
aI77
aI40
aI28
aI255
aI157
aI1667
aI183
aI251
aI223
aI334
aI64
aI37
aI454
aI48
aI507
aI133
aI20
aI20
aI666
aI106
aI33
aI32
aI165
aI34
aI461
aI30
aI159
aI30
aI14
aI293
aI359
aI43
aI140
aI128
aI65
aI8
aI232
aI77
aI37
aI147
aI341
aI25
aI345
aI49
aI1309
aI236
aI52
aI21
aI178
aI32
aI665
aI19
aI35
aI126
aI108
aI191
aI24
aI24
aI68
aI193
aI49
aI31
aI382
aI16
aI1343
aI41
aI316
aI309
aI253
aI32
aI88
aI35
aI528
aI176
aI1372
aI243
aI80
aI6
aa(lp20
I71
aI27
aI3
aI14
aI258
aI23
aI56
aI236
aI46
aI45
aI94
aI97
aI37
aI5
aI66
aI472
aI29
aI1
aI37
aI34
aI9
aI323
aI40
aI511
aI215
aI30
aI352
aI70
aI46
aI24
aI613
aI414
aI126
aI24
aI216
aI46
aI328
aI22
aI112
aI118
aI166
aI41
aI22
aI244
aI48
aI24
aI77
aI78
aI152
aI38
aI31
aI65
aI181
aI707
aI62
aI118
aI34
aI154
aI954
aI259
aI564
aI122
aI55
aI351
aI35
aI3
aI163
aI335
aI25
aI26
aI16
aI44
aI25
aI31
aI41
aI43
aI125
aI331
aI15
aI36
aI475
aI253
aI88
aI19
aI127
aI30
aI15
aI90
aI116
aI48
aI15
aI81
aI26
aI9
aI98
aI278
aI64
aI39
aI40
aI136
aa(lp21
I804
aI152
aI404
aI174
aI57
aI45
aI47
aI172
aI153
aI96
aI225
aI433
aI219
aI220
aI85
aI38
aI49
aI163
aI37
aI565
aI382
aI17
aI97
aI35
aI38
aI31
aI66
aI29
aI48
aI226
aI10
aI187
aI189
aI39
aI89
aI145
aI33
aI25
aI529
aI502
aI35
aI35
aI36
aI40
aI143
aI41
aI39
aI413
aI303
aI1110
aI461
aI6
aI191
aI21
aI90
aI90
aI531
aI52
aI25
aI119
aI120
aI105
aI385
aI252
aI125
aI59
aI40
aI3
aI173
aI187
aI135
aI33
aI467
aI102
aI29
aI26
aI7
aI35
aI31
aI25
aI14
aI208
aI149
aI148
aI55
aI269
aI483
aI102
aI30
aI40
aI47
aI533
aI49
aI53
aI44
aI287
aI466
aI1133
aI427
aI54
aa(lp22
I108
aI151
aI208
aI54
aI167
aI22
aI12
aI196
aI56
aI155
aI248
aI22
aI476
aI34
aI440
aI190
aI104
aI104
aI216
aI155
aI46
aI57
aI451
aI138
aI90
aI42
aI40
aI13
aI86
aI15
aI145
aI195
aI17
aI117
aI51
aI513
aI210
aI28
aI18
aI164
aI18
aI385
aI43
aI193
aI102
aI17
aI288
aI320
aI31
aI171
aI32
aI20
aI18
aI12
aI134
aI82
aI39
aI97
aI128
aI87
aI46
aI39
aI41
aI151
aI78
aI467
aI87
aI617
aI100
aI196
aI501
aI42
aI38
aI22
aI26
aI150
aI434
aI22
aI41
aI118
aI380
aI78
aI9
aI13
aI74
aI2
aI48
aI119
aI16
aI27
aI56
aI270
aI53
aI38
aI138
aI88
aI105
aI579
aI173
aI22
aa(lp23
I288
aI31
aI52
aI29
aI753
aI270
aI41
aI330
aI44
aI92
aI43
aI36
aI126
aI126
aI83
aI77
aI233
aI146
aI1040
aI36
aI29
aI44
aI90
aI594
aI288
aI279
aI834
aI60
aI34
aI37
aI48
aI29
aI0
aI36
aI78
aI36
aI226
aI142
aI27
aI55
aI142
aI34
aI6
aI24
aI636
aI26
aI203
aI50
aI648
aI35
aI21
aI365
aI18
aI50
aI139
aI305
aI40
aI104
aI36
aI205
aI111
aI45
aI12
aI91
aI762
aI446
aI37
aI170
aI211
aI113
aI40
aI31
aI267
aI143
aI51
aI27
aI161
aI54
aI24
aI18
aI691
aI239
aI526
aI11
aI69
aI286
aI168
aI167
aI112
aI76
aI25
aI40
aI64
aI14
aI47
aI26
aI131
aI25
aI42
aI38
aa(lp24
I100
aI37
aI398
aI36
aI247
aI10
aI44
aI42
aI21
aI606
aI25
aI169
aI18
aI23
aI325
aI16
aI36
aI8
aI40
aI45
aI13
aI10
aI45
aI28
aI130
aI61
aI58
aI343
aI75
aI40
aI337
aI36
aI186
aI218
aI22
aI12
aI13
aI414
aI12
aI120
aI28
aI777
aI50
aI19
aI51
aI69
aI161
aI244
aI39
aI16
aI14
aI11
aI76
aI285
aI729
aI25
aI248
aI54
aI20
aI39
aI78
aI48
aI181
aI42
aI18
aI102
aI166
aI412
aI307
aI361
aI55
aI35
aI84
aI289
aI23
aI107
aI206
aI128
aI71
aI171
aI10
aI34
aI295
aI43
aI229
aI80
aI259
aI221
aI39
aI66
aI212
aI184
aI71
aI256
aI28
aI6
aI39
aI238
aI127
aI41
aasS'experiment'
p25
(dp26
S'trialsPerAgent'
p27
I100
sS'numAgents'
p28
(lp29
I10
aI20
aI30
aI40
aI50
aI60
aI70
aI80
aI90
aI100
aI110
aI120
aI130
aI140
aI150
aI160
aI170
aI180
aI190
aI200
asg2
(lp30
I40
aI40
aI40
aI40
aI40
aI40
aI40
aI40
aI40
aI40
aI40
aI40
aI40
aI40
aI40
aI40
aI40
aI40
aI40
aI40
assS'type'
p31
S'LinesNonUniform'
p32
s.