(dp0
S'argsDesc'
p1
S'K = 6'
p2
sS'data'
p3
(lp4
(lp5
I4245
aI2768
aI2204
aI4958
aI1372
aI5101
aI6705
aI3750
aI6624
aI5891
aI1745
aI2929
aI12752
aI500
aI611
aI2492
aI1774
aI14007
aI1321
aI5544
aI6707
aI3046
aI3055
aI6933
aI10735
aI3211
aI2392
aI5857
aI7441
aI3979
aI3579
aI3116
aI4810
aI6232
aI9489
aI1974
aI2141
aI2021
aI967
aI1311
aI2939
aI2294
aI2606
aI6383
aI977
aI1480
aI1872
aI799
aI3155
aI2076
aI4699
aI1372
aI3849
aI2185
aI4623
aI817
aI4759
aI9110
aI9056
aI1976
aI1143
aI2679
aI2770
aI1351
aI4257
aI1244
aI311
aI1468
aI2399
aI1859
aI2007
aI3732
aI3832
aI17461
aI5301
aI181
aI1010
aI1124
aI7019
aI1035
aI1145
aI1202
aI675
aI1472
aI2929
aI1261
aI1858
aI2172
aI1148
aI591
aI1529
aI1600
aI2297
aI825
aI734
aI443
aI1679
aI1997
aI1995
aI7173
aa(lp6
I1689
aI3841
aI981
aI2745
aI950
aI2134
aI2890
aI2845
aI50
aI1836
aI1172
aI766
aI2384
aI1829
aI1064
aI1190
aI4374
aI1921
aI2639
aI2961
aI2318
aI2169
aI3230
aI1798
aI2148
aI895
aI1686
aI255
aI3666
aI2339
aI2155
aI1304
aI4110
aI2784
aI2145
aI3198
aI434
aI1943
aI828
aI1508
aI2383
aI5136
aI2184
aI752
aI1413
aI906
aI6668
aI3187
aI1451
aI3583
aI2743
aI2769
aI1742
aI906
aI601
aI2083
aI3798
aI3133
aI1310
aI3056
aI268
aI97
aI1888
aI2399
aI4534
aI3976
aI722
aI1764
aI2090
aI869
aI107
aI2327
aI1644
aI2129
aI1303
aI1135
aI2850
aI239
aI2588
aI1156
aI3923
aI3347
aI3218
aI62
aI806
aI3204
aI754
aI2366
aI3
aI852
aI3719
aI2438
aI1627
aI1270
aI975
aI2625
aI251
aI3157
aI773
aI1365
aa(lp7
I413
aI935
aI916
aI1781
aI1066
aI2534
aI3227
aI491
aI4100
aI3056
aI2002
aI1874
aI2269
aI1221
aI3267
aI2025
aI1852
aI1421
aI281
aI2175
aI3153
aI1587
aI2161
aI2619
aI845
aI985
aI740
aI2570
aI901
aI7376
aI1988
aI907
aI4494
aI2583
aI52
aI1902
aI1736
aI1404
aI1764
aI1767
aI1574
aI1299
aI1862
aI957
aI2733
aI942
aI2685
aI375
aI16
aI1103
aI311
aI4075
aI2247
aI1883
aI1356
aI2361
aI1335
aI3090
aI1745
aI394
aI2200
aI2798
aI341
aI3873
aI1048
aI1445
aI296
aI3949
aI4496
aI944
aI521
aI994
aI1786
aI4694
aI2447
aI1965
aI867
aI1173
aI1635
aI2348
aI2632
aI926
aI2289
aI3679
aI1778
aI3979
aI2232
aI1850
aI433
aI478
aI3759
aI116
aI742
aI2397
aI4172
aI2182
aI4519
aI1193
aI3747
aI857
aa(lp8
I402
aI574
aI292
aI1932
aI1675
aI2256
aI2298
aI2845
aI1550
aI2241
aI1821
aI3010
aI1974
aI2438
aI1065
aI1264
aI2491
aI1662
aI1049
aI2217
aI1402
aI1123
aI1985
aI1418
aI2907
aI2508
aI657
aI1553
aI3093
aI2738
aI2349
aI941
aI2014
aI1145
aI1888
aI2138
aI1169
aI2221
aI836
aI1862
aI330
aI2923
aI1965
aI2529
aI5
aI2562
aI815
aI1463
aI937
aI1278
aI850
aI2731
aI2659
aI985
aI1650
aI1801
aI2754
aI1076
aI1264
aI2140
aI2104
aI2666
aI1033
aI573
aI1713
aI1941
aI851
aI1803
aI5511
aI1416
aI2277
aI1259
aI966
aI1863
aI2397
aI1468
aI5639
aI621
aI401
aI2108
aI1843
aI2219
aI1414
aI4341
aI2097
aI1387
aI2372
aI1939
aI2296
aI4404
aI910
aI978
aI1467
aI742
aI3808
aI3075
aI2338
aI1608
aI2277
aI427
aa(lp9
I2640
aI2162
aI1981
aI1955
aI647
aI1279
aI502
aI2036
aI3885
aI2467
aI3202
aI1930
aI1283
aI1091
aI1030
aI473
aI929
aI3119
aI853
aI885
aI805
aI587
aI2077
aI843
aI605
aI1916
aI2949
aI3155
aI1483
aI948
aI3410
aI1479
aI2002
aI269
aI16
aI3503
aI1015
aI787
aI727
aI3380
aI2148
aI911
aI2305
aI313
aI3165
aI516
aI893
aI1700
aI1350
aI831
aI2312
aI939
aI16
aI2735
aI1181
aI370
aI983
aI345
aI466
aI2146
aI1205
aI919
aI2503
aI11
aI1922
aI2172
aI2689
aI1016
aI1044
aI1414
aI2084
aI872
aI2428
aI990
aI1234
aI3075
aI1954
aI853
aI2
aI821
aI2304
aI716
aI3896
aI1219
aI2145
aI951
aI1134
aI958
aI2674
aI280
aI1828
aI1166
aI30
aI75
aI834
aI907
aI2842
aI413
aI1874
aI2837
aa(lp10
I1880
aI3233
aI935
aI3542
aI2079
aI891
aI807
aI915
aI2969
aI66
aI657
aI1257
aI873
aI2685
aI1199
aI536
aI808
aI95
aI382
aI2993
aI1246
aI2414
aI987
aI892
aI601
aI882
aI1957
aI1781
aI1911
aI2658
aI2431
aI325
aI811
aI829
aI2219
aI971
aI1554
aI2034
aI2604
aI877
aI766
aI4768
aI1993
aI43
aI3279
aI1974
aI2974
aI840
aI1111
aI1110
aI867
aI2750
aI419
aI3591
aI1320
aI1203
aI1883
aI2667
aI1223
aI4
aI1545
aI2354
aI1828
aI58
aI1008
aI1046
aI906
aI852
aI258
aI2087
aI1010
aI1836
aI306
aI2940
aI1038
aI451
aI1975
aI888
aI319
aI2290
aI827
aI1434
aI412
aI917
aI1047
aI1367
aI2395
aI1457
aI1866
aI906
aI3584
aI1494
aI1958
aI311
aI2750
aI2051
aI1016
aI457
aI2077
aI1087
aa(lp11
I652
aI2121
aI1969
aI1887
aI677
aI1079
aI1958
aI835
aI1990
aI1120
aI2097
aI2106
aI1943
aI64
aI1379
aI339
aI1483
aI448
aI958
aI288
aI1933
aI1787
aI872
aI2457
aI2421
aI2357
aI2056
aI829
aI2510
aI1738
aI2140
aI692
aI2480
aI1020
aI1070
aI1170
aI440
aI2108
aI1823
aI814
aI1976
aI8
aI3208
aI304
aI1133
aI54
aI811
aI1018
aI2220
aI507
aI2184
aI1163
aI2470
aI406
aI1100
aI1234
aI1574
aI1749
aI433
aI303
aI3131
aI1984
aI466
aI483
aI2048
aI1362
aI798
aI830
aI1963
aI133
aI852
aI2156
aI852
aI1038
aI2615
aI2284
aI872
aI1921
aI1883
aI1965
aI2029
aI1054
aI2405
aI856
aI1110
aI2325
aI1455
aI2190
aI1512
aI911
aI1221
aI924
aI1880
aI1231
aI2296
aI303
aI2271
aI1258
aI953
aI962
aa(lp12
I1841
aI2587
aI766
aI302
aI271
aI958
aI1729
aI402
aI2333
aI444
aI275
aI449
aI1000
aI835
aI778
aI857
aI981
aI1675
aI3143
aI911
aI846
aI1964
aI1322
aI1451
aI2087
aI808
aI25
aI814
aI1780
aI1850
aI2496
aI1312
aI35
aI1885
aI904
aI3164
aI2370
aI426
aI437
aI2623
aI1161
aI2832
aI2021
aI1739
aI879
aI1937
aI963
aI2687
aI766
aI992
aI1507
aI933
aI1938
aI943
aI886
aI1050
aI2528
aI1188
aI1476
aI298
aI1675
aI2323
aI2086
aI1952
aI2011
aI2404
aI301
aI889
aI4233
aI1973
aI1759
aI2007
aI1188
aI953
aI184
aI1802
aI1100
aI833
aI9
aI742
aI2150
aI2171
aI1037
aI263
aI1399
aI1424
aI664
aI2111
aI985
aI892
aI728
aI1252
aI1067
aI2411
aI1785
aI2317
aI83
aI440
aI1000
aI1232
aa(lp13
I1110
aI2746
aI2337
aI763
aI1835
aI1823
aI2025
aI915
aI328
aI1111
aI2083
aI838
aI1759
aI769
aI1513
aI679
aI691
aI2424
aI338
aI9
aI2130
aI959
aI391
aI1145
aI1895
aI1316
aI1756
aI24
aI896
aI1170
aI1008
aI1001
aI2055
aI829
aI1054
aI2130
aI873
aI3
aI2279
aI789
aI1599
aI3912
aI810
aI2100
aI911
aI1215
aI3480
aI8
aI1149
aI286
aI1195
aI1985
aI1249
aI1760
aI988
aI1379
aI589
aI385
aI919
aI889
aI960
aI3157
aI1253
aI832
aI458
aI2234
aI817
aI1761
aI5
aI387
aI820
aI896
aI765
aI1991
aI1957
aI1826
aI2414
aI324
aI603
aI2828
aI1235
aI264
aI2568
aI1951
aI951
aI1028
aI46
aI304
aI2588
aI1300
aI1843
aI469
aI874
aI2513
aI1028
aI1900
aI1140
aI36
aI1493
aI1816
aa(lp14
I1080
aI1817
aI1995
aI1552
aI3213
aI1949
aI878
aI260
aI966
aI772
aI2216
aI1892
aI1999
aI6
aI860
aI2145
aI3062
aI342
aI1067
aI767
aI1130
aI824
aI2319
aI2855
aI2536
aI749
aI1578
aI1024
aI1345
aI1378
aI847
aI1417
aI1067
aI2166
aI1916
aI251
aI342
aI1311
aI297
aI257
aI1459
aI1952
aI274
aI584
aI2006
aI1129
aI548
aI3030
aI142
aI1883
aI3
aI3311
aI1777
aI1822
aI1880
aI283
aI966
aI1194
aI429
aI779
aI441
aI2097
aI1315
aI817
aI1646
aI956
aI842
aI970
aI781
aI343
aI728
aI294
aI496
aI2134
aI901
aI1483
aI17
aI789
aI373
aI2838
aI1251
aI2006
aI272
aI1202
aI784
aI446
aI919
aI2015
aI2121
aI872
aI30
aI302
aI2016
aI868
aI426
aI880
aI1367
aI899
aI848
aI1436
aa(lp15
I1472
aI2620
aI1095
aI949
aI1532
aI763
aI1126
aI37
aI1798
aI835
aI1245
aI875
aI2423
aI2122
aI2082
aI1051
aI1838
aI1798
aI275
aI1660
aI1341
aI869
aI1482
aI1617
aI986
aI1959
aI2709
aI1250
aI912
aI1234
aI2369
aI862
aI1336
aI763
aI1985
aI654
aI277
aI1935
aI1918
aI2339
aI2122
aI819
aI920
aI1133
aI1952
aI337
aI3099
aI294
aI567
aI315
aI1005
aI832
aI1040
aI287
aI1415
aI666
aI914
aI916
aI2333
aI803
aI33
aI2830
aI1056
aI1898
aI1976
aI2327
aI802
aI1940
aI782
aI2053
aI531
aI306
aI1248
aI40
aI1989
aI1365
aI1032
aI662
aI188
aI390
aI1214
aI2532
aI1967
aI864
aI2013
aI1153
aI1825
aI532
aI931
aI1981
aI854
aI3
aI1659
aI324
aI911
aI2056
aI1898
aI826
aI2033
aI1080
aa(lp16
I1951
aI1119
aI329
aI1915
aI1692
aI841
aI3008
aI1342
aI1154
aI1070
aI789
aI1004
aI790
aI881
aI860
aI1854
aI2059
aI416
aI1807
aI427
aI2117
aI2646
aI1883
aI1376
aI2268
aI913
aI998
aI2277
aI569
aI553
aI1825
aI2222
aI5
aI2185
aI1896
aI1999
aI908
aI1416
aI2748
aI860
aI846
aI851
aI423
aI412
aI1166
aI1325
aI965
aI435
aI1921
aI428
aI803
aI1907
aI1598
aI424
aI938
aI1151
aI917
aI747
aI1112
aI1764
aI1821
aI1305
aI1364
aI282
aI787
aI1578
aI836
aI881
aI1285
aI932
aI1995
aI526
aI1880
aI306
aI1500
aI1783
aI1609
aI2818
aI3620
aI1884
aI2201
aI941
aI278
aI321
aI872
aI354
aI2843
aI1022
aI111
aI1966
aI487
aI1513
aI1240
aI1664
aI2167
aI885
aI726
aI1782
aI763
aI1353
aa(lp17
I806
aI1046
aI986
aI935
aI253
aI826
aI1939
aI908
aI2012
aI17
aI1008
aI1118
aI840
aI1819
aI969
aI2075
aI1397
aI1361
aI1276
aI1068
aI356
aI816
aI264
aI1198
aI1186
aI1513
aI330
aI327
aI2022
aI1435
aI1084
aI6
aI978
aI2220
aI345
aI3149
aI789
aI322
aI899
aI580
aI311
aI848
aI2046
aI1834
aI1979
aI1641
aI266
aI1402
aI1070
aI254
aI456
aI517
aI1873
aI1938
aI762
aI796
aI904
aI1034
aI1946
aI1029
aI1955
aI450
aI972
aI909
aI1111
aI3241
aI1135
aI10
aI1879
aI277
aI1818
aI1915
aI777
aI968
aI899
aI998
aI1017
aI768
aI328
aI2228
aI2120
aI882
aI1145
aI550
aI2134
aI938
aI646
aI785
aI1168
aI2158
aI1243
aI1670
aI930
aI57
aI1027
aI1132
aI1640
aI603
aI127
aI854
aa(lp18
I2638
aI2499
aI645
aI801
aI1113
aI1116
aI1231
aI879
aI1189
aI264
aI2842
aI1785
aI2015
aI1891
aI2185
aI872
aI1745
aI1151
aI1164
aI322
aI342
aI1423
aI412
aI7
aI83
aI860
aI953
aI589
aI550
aI1953
aI1786
aI3
aI36
aI1185
aI765
aI315
aI842
aI332
aI872
aI291
aI1326
aI39
aI312
aI898
aI908
aI117
aI1060
aI329
aI753
aI1332
aI792
aI3433
aI607
aI1870
aI1192
aI1436
aI32
aI1523
aI1380
aI800
aI2146
aI872
aI657
aI1867
aI1495
aI1663
aI953
aI1010
aI883
aI1978
aI887
aI1940
aI782
aI873
aI1000
aI934
aI483
aI1098
aI1302
aI1628
aI16
aI888
aI1279
aI9
aI890
aI1222
aI854
aI1518
aI895
aI1215
aI821
aI584
aI866
aI977
aI780
aI1875
aI2506
aI1672
aI1929
aI340
aa(lp19
I2233
aI830
aI930
aI1114
aI850
aI874
aI301
aI2065
aI333
aI855
aI1907
aI584
aI1812
aI1126
aI89
aI1885
aI457
aI1857
aI950
aI818
aI480
aI1027
aI1899
aI951
aI2530
aI250
aI903
aI984
aI1717
aI696
aI1917
aI284
aI1214
aI1938
aI834
aI1065
aI668
aI56
aI1613
aI362
aI895
aI801
aI281
aI1851
aI1083
aI496
aI1093
aI2390
aI407
aI1650
aI888
aI577
aI1906
aI1103
aI1589
aI1808
aI1039
aI968
aI268
aI336
aI327
aI2227
aI1650
aI786
aI2079
aI1657
aI1378
aI1216
aI1843
aI943
aI830
aI706
aI831
aI1839
aI1254
aI149
aI1471
aI288
aI1725
aI878
aI1601
aI1681
aI1246
aI2111
aI784
aI1883
aI1667
aI1767
aI271
aI1859
aI2007
aI1114
aI844
aI2150
aI763
aI804
aI2158
aI307
aI939
aI8
aa(lp20
I399
aI1129
aI954
aI873
aI2020
aI374
aI807
aI702
aI1041
aI1998
aI862
aI892
aI684
aI785
aI1416
aI78
aI1005
aI844
aI1018
aI1667
aI1043
aI1644
aI1520
aI799
aI1490
aI282
aI286
aI250
aI776
aI2788
aI1048
aI981
aI1939
aI603
aI1016
aI1282
aI1196
aI661
aI235
aI1001
aI448
aI809
aI877
aI841
aI2282
aI833
aI301
aI856
aI1929
aI2032
aI961
aI1986
aI2107
aI879
aI1022
aI993
aI315
aI354
aI1500
aI1640
aI940
aI1904
aI2580
aI12
aI358
aI379
aI2170
aI581
aI2028
aI789
aI1256
aI752
aI1968
aI1743
aI1818
aI970
aI756
aI2328
aI353
aI763
aI1894
aI1014
aI1793
aI1401
aI821
aI765
aI740
aI1929
aI2400
aI322
aI1383
aI1016
aI1760
aI2293
aI761
aI860
aI701
aI2215
aI794
aI922
aa(lp21
I1437
aI829
aI303
aI2484
aI802
aI10
aI390
aI1024
aI957
aI1689
aI1171
aI274
aI1
aI690
aI400
aI596
aI2287
aI776
aI941
aI261
aI1761
aI942
aI1045
aI963
aI988
aI989
aI782
aI1500
aI1033
aI1935
aI1598
aI874
aI970
aI1125
aI1770
aI820
aI781
aI1686
aI926
aI809
aI1079
aI1674
aI824
aI1240
aI1546
aI996
aI251
aI877
aI908
aI1617
aI375
aI2168
aI858
aI760
aI296
aI1801
aI1161
aI1370
aI923
aI152
aI783
aI1161
aI386
aI101
aI1250
aI1055
aI1192
aI1889
aI932
aI1735
aI1031
aI846
aI841
aI1986
aI311
aI1378
aI978
aI1217
aI1347
aI1104
aI1691
aI1920
aI1888
aI1615
aI869
aI849
aI289
aI884
aI1250
aI4
aI365
aI1185
aI2227
aI1221
aI1111
aI643
aI1120
aI967
aI1576
aI1115
aa(lp22
I888
aI2
aI895
aI718
aI262
aI1897
aI572
aI1789
aI945
aI345
aI312
aI753
aI289
aI873
aI567
aI807
aI1053
aI1429
aI1167
aI4
aI2769
aI971
aI890
aI917
aI273
aI1954
aI1511
aI272
aI832
aI1794
aI1766
aI1917
aI359
aI2319
aI1211
aI949
aI598
aI308
aI997
aI1240
aI1792
aI1484
aI1073
aI1388
aI2523
aI452
aI112
aI315
aI1549
aI1325
aI916
aI2407
aI1246
aI518
aI794
aI2001
aI877
aI1842
aI1069
aI395
aI2044
aI895
aI987
aI1887
aI782
aI1008
aI1735
aI884
aI293
aI124
aI429
aI857
aI1051
aI2216
aI631
aI981
aI933
aI1569
aI1084
aI2110
aI1884
aI1041
aI1097
aI1279
aI2148
aI1863
aI387
aI2070
aI1533
aI332
aI935
aI1143
aI1095
aI292
aI899
aI2023
aI1761
aI1576
aI1803
aI1533
aa(lp23
I2484
aI2198
aI2176
aI805
aI808
aI1081
aI1460
aI2101
aI368
aI1727
aI98
aI1598
aI974
aI1157
aI869
aI285
aI822
aI1290
aI569
aI260
aI2351
aI526
aI992
aI1723
aI849
aI518
aI403
aI17
aI1746
aI2
aI5
aI652
aI58
aI1894
aI2057
aI1833
aI1155
aI941
aI750
aI301
aI1862
aI1252
aI740
aI2214
aI317
aI1619
aI1290
aI917
aI1263
aI1254
aI892
aI1902
aI921
aI418
aI2306
aI1947
aI967
aI432
aI1486
aI49
aI828
aI278
aI1014
aI1127
aI907
aI6
aI1127
aI958
aI289
aI1842
aI1181
aI1667
aI2181
aI2205
aI816
aI1762
aI846
aI1205
aI279
aI774
aI1971
aI1595
aI260
aI819
aI796
aI1142
aI899
aI414
aI1306
aI1109
aI818
aI2044
aI1016
aI5
aI2340
aI2
aI1753
aI774
aI1418
aI1695
aa(lp24
I927
aI282
aI868
aI2019
aI1594
aI1017
aI1747
aI1804
aI1973
aI283
aI769
aI1354
aI978
aI1001
aI0
aI306
aI1237
aI1376
aI1994
aI505
aI372
aI903
aI267
aI1166
aI685
aI932
aI2018
aI22
aI294
aI258
aI303
aI1285
aI1838
aI805
aI1206
aI843
aI1714
aI343
aI494
aI1092
aI499
aI1253
aI811
aI438
aI1207
aI1666
aI1645
aI1443
aI437
aI1044
aI899
aI1208
aI281
aI384
aI422
aI819
aI278
aI308
aI1915
aI1172
aI1085
aI1791
aI1985
aI1427
aI1780
aI827
aI810
aI992
aI775
aI206
aI874
aI1609
aI916
aI1675
aI738
aI2286
aI565
aI846
aI8
aI6
aI11
aI286
aI920
aI959
aI1415
aI266
aI49
aI515
aI1831
aI850
aI1950
aI865
aI952
aI605
aI918
aI207
aI730
aI462
aI840
aI1175
aasS'experiment'
p25
(dp26
S'trialsPerAgent'
p27
I100
sS'numAgents'
p28
(lp29
I10
aI20
aI30
aI40
aI50
aI60
aI70
aI80
aI90
aI100
aI110
aI120
aI130
aI140
aI150
aI160
aI170
aI180
aI190
aI200
asS'D'
p30
(lp31
I40
aI40
aI40
aI40
aI40
aI40
aI40
aI40
aI40
aI40
aI40
aI40
aI40
aI40
aI40
aI40
aI40
aI40
aI40
aI40
assS'type'
p32
S'LinesUniformInD'
p33
s.